
 Start         Length     Name                   Class
 0001:00000000 0005F57CH .text                   CODE
 0002:00000000 00002828H .data                   DATA
 0002:00002828 00000EB9H .bss                    BSS


Detailed map of segments

 0001:00000000 000088F7 C=CODE     S=.text    G=(none)   M=System   ACBP=A9
 0001:000088F8 0000022C C=CODE     S=.text    G=(none)   M=SysInit  ACBP=A9
 0001:00008B24 00000460 C=CODE     S=.text    G=(none)   M=Types    ACBP=A9
 0001:00008F84 00000580 C=CODE     S=.text    G=(none)   M=Windows  ACBP=A9
 0001:00009504 000004B8 C=CODE     S=.text    G=(none)   M=SysConst ACBP=A9
 0001:000099BC 0000BDD4 C=CODE     S=.text    G=(none)   M=SysUtils ACBP=A9
 0001:00015790 00000B87 C=CODE     S=.text    G=(none)   M=VarUtils ACBP=A9
 0001:00016318 0000AAC4 C=CODE     S=.text    G=(none)   M=Variants ACBP=A9
 0001:00020DDC 00000038 C=CODE     S=.text    G=(none)   M=Messages ACBP=A9
 0001:00020E14 00000388 C=CODE     S=.text    G=(none)   M=RTLConsts ACBP=A9
 0001:0002119C 000024D4 C=CODE     S=.text    G=(none)   M=TypInfo  ACBP=A9
 0001:00023670 00001D94 C=CODE     S=.text    G=(none)   M=ActiveX  ACBP=A9
 0001:00025404 0001332A C=CODE     S=.text    G=(none)   M=Classes  ACBP=A9
 0001:00038730 0000050C C=CODE     S=.text    G=(none)   M=SyncObjs ACBP=A9
 0001:00038C3C 000000A8 C=CODE     S=.text    G=(none)   M=ComConst ACBP=A9
 0001:00038CE4 00004119 C=CODE     S=.text    G=(none)   M=ComObj   ACBP=A9
 0001:0003CE00 00000851 C=CODE     S=.text    G=(none)   M=VCLCom   ACBP=A9
 0001:0003D654 00002C48 C=CODE     S=.text    G=(none)   M=Math     ACBP=A9
 0001:0004029C 00001360 C=CODE     S=.text    G=(none)   M=Contnrs  ACBP=A9
 0001:000415FC 00001FD3 C=CODE     S=.text    G=(none)   M=ConvUtils ACBP=A9
 0001:000435D0 000024C4 C=CODE     S=.text    G=(none)   M=DateUtils ACBP=A9
 0001:00045A94 00002218 C=CODE     S=.text    G=(none)   M=IniFiles ACBP=A9
 0001:00047CAC 0000088C C=CODE     S=.text    G=(none)   M=Masks    ACBP=A9
 0001:00048538 00002F48 C=CODE     S=.text    G=(none)   M=Registry ACBP=A9
 0001:0004B480 00001F14 C=CODE     S=.text    G=(none)   M=StdConvs ACBP=A9
 0001:0004D394 0000016C C=CODE     S=.text    G=(none)   M=StdVCL   ACBP=A9
 0001:0004D500 00000E20 C=CODE     S=.text    G=(none)   M=StrUtils ACBP=A9
 0001:0004E320 00000C2F C=CODE     S=.text    G=(none)   M=VarConv  ACBP=A9
 0001:0004EF50 000028F7 C=CODE     S=.text    G=(none)   M=VarCmplx ACBP=A9
 0001:00051848 00000C08 C=CODE     S=.text    G=(none)   M=MaskUtils ACBP=A9
 0001:00052450 000010C8 C=CODE     S=.text    G=(none)   M=HelpIntfs ACBP=A9
 0001:00053518 00000138 C=CODE     S=.text    G=(none)   M=WinSock  ACBP=A9
 0001:00053650 00004538 C=CODE     S=.text    G=(none)   M=ScktComp ACBP=A9
 0001:00057B88 00000038 C=CODE     S=.text    G=(none)   M=AccCtrl  ACBP=A9
 0001:00057BC0 00000038 C=CODE     S=.text    G=(none)   M=AclAPI   ACBP=A9
 0001:00057BF8 000005D4 C=CODE     S=.text    G=(none)   M=Mtx      ACBP=A9
 0001:000581CC 00000C6C C=CODE     S=.text    G=(none)   M=ComSvcs  ACBP=A9
 0001:00058E38 00000FE4 C=CODE     S=.text    G=(none)   M=ADOInt   ACBP=A9
 0001:00059E1C 00000A24 C=CODE     S=.text    G=(none)   M=AspTlb   ACBP=A9
 0001:0005A840 0000019C C=CODE     S=.text    G=(none)   M=COMAdmin ACBP=A9
 0001:0005A9DC 00000038 C=CODE     S=.text    G=(none)   M=CommCtrl ACBP=A9
 0001:0005AA14 00000038 C=CODE     S=.text    G=(none)   M=ShellAPI ACBP=A9
 0001:0005AA4C 00000038 C=CODE     S=.text    G=(none)   M=RegStr   ACBP=A9
 0001:0005AA84 00000038 C=CODE     S=.text    G=(none)   M=WinInet  ACBP=A9
 0001:0005AABC 00000038 C=CODE     S=.text    G=(none)   M=UrlMon   ACBP=A9
 0001:0005AAF4 00000038 C=CODE     S=.text    G=(none)   M=ShlObj   ACBP=A9
 0001:0005AB2C 00000038 C=CODE     S=.text    G=(none)   M=CommDlg  ACBP=A9
 0001:0005AB64 00000038 C=CODE     S=.text    G=(none)   M=Cpl      ACBP=A9
 0001:0005AB9C 00000038 C=CODE     S=.text    G=(none)   M=DDEml    ACBP=A9
 0001:0005ABD4 00000038 C=CODE     S=.text    G=(none)   M=Dlgs     ACBP=A9
 0001:0005AC0C 0000036B C=CODE     S=.text    G=(none)   M=FlatSB   ACBP=A9
 0001:0005AF78 00000238 C=CODE     S=.text    G=(none)   M=ImageHlp ACBP=A9
 0001:0005B1B0 00000038 C=CODE     S=.text    G=(none)   M=Imm      ACBP=A9
 0001:0005B1E8 00000038 C=CODE     S=.text    G=(none)   M=Isapi    ACBP=A9
 0001:0005B220 00000038 C=CODE     S=.text    G=(none)   M=Isapi2   ACBP=A9
 0001:0005B258 00000038 C=CODE     S=.text    G=(none)   M=LZExpand ACBP=A9
 0001:0005B290 00000670 C=CODE     S=.text    G=(none)   M=Mapi     ACBP=A9
 0001:0005B900 00000038 C=CODE     S=.text    G=(none)   M=MMSystem ACBP=A9
 0001:0005B938 0000139C C=CODE     S=.text    G=(none)   M=msxml    ACBP=A9
 0001:0005CCD4 0000079F C=CODE     S=.text    G=(none)   M=MultiMon ACBP=A9
 0001:0005D474 00000038 C=CODE     S=.text    G=(none)   M=Nb30     ACBP=A9
 0001:0005D4AC 00000038 C=CODE     S=.text    G=(none)   M=Nsapi    ACBP=A9
 0001:0005D4E4 00000038 C=CODE     S=.text    G=(none)   M=Ns30Fix  ACBP=A9
 0001:0005D51C 00000038 C=CODE     S=.text    G=(none)   M=Ns35Fix  ACBP=A9
 0001:0005D554 00000038 C=CODE     S=.text    G=(none)   M=Ns36Fix  ACBP=A9
 0001:0005D58C 00001B5C C=CODE     S=.text    G=(none)   M=OleDB    ACBP=A9
 0001:0005F0E8 00000038 C=CODE     S=.text    G=(none)   M=OleDlg   ACBP=A9
 0001:0005F120 00000043 C=CODE     S=.text    G=(none)   M=OpenGL   ACBP=A9
 0001:0005F164 00000038 C=CODE     S=.text    G=(none)   M=PenWin   ACBP=A9
 0001:0005F19C 00000038 C=CODE     S=.text    G=(none)   M=PsAPI    ACBP=A9
 0001:0005F1D4 00000038 C=CODE     S=.text    G=(none)   M=RichEdit ACBP=A9
 0001:0005F20C 00000038 C=CODE     S=.text    G=(none)   M=SHFolder ACBP=A9
 0001:0005F244 00000038 C=CODE     S=.text    G=(none)   M=TlHelp32 ACBP=A9
 0001:0005F27C 00000038 C=CODE     S=.text    G=(none)   M=WinSpool ACBP=A9
 0001:0005F2B4 00000038 C=CODE     S=.text    G=(none)   M=WinSvc   ACBP=A9
 0001:0005F2EC 0000028D C=CODE     S=.text    G=(none)   M=rtl      ACBP=A9
 0002:00000000 000002F0 C=DATA     S=.data    G=DGROUP   M=System   ACBP=A9
 0002:000002F0 00000028 C=DATA     S=.data    G=DGROUP   M=SysInit  ACBP=A9
 0002:00000318 0000029C C=DATA     S=.data    G=DGROUP   M=SysUtils ACBP=A9
 0002:000005B4 00000110 C=DATA     S=.data    G=DGROUP   M=VarUtils ACBP=A9
 0002:000006C4 0000018E C=DATA     S=.data    G=DGROUP   M=Variants ACBP=A9
 0002:00000854 0000000C C=DATA     S=.data    G=DGROUP   M=TypInfo  ACBP=A9
 0002:00000860 000001B0 C=DATA     S=.data    G=DGROUP   M=ActiveX  ACBP=A9
 0002:00000A10 00000118 C=DATA     S=.data    G=DGROUP   M=Classes  ACBP=A9
 0002:00000B28 00000044 C=DATA     S=.data    G=DGROUP   M=ComObj   ACBP=A9
 0002:00000B6C 00000010 C=DATA     S=.data    G=DGROUP   M=Math     ACBP=A9
 0002:00000B7C 00000008 C=DATA     S=.data    G=DGROUP   M=Contnrs  ACBP=A9
 0002:00000B84 0000000C C=DATA     S=.data    G=DGROUP   M=ConvUtils ACBP=A9
 0002:00000B90 00000022 C=DATA     S=.data    G=DGROUP   M=DateUtils ACBP=A9
 0002:00000BB4 00000008 C=DATA     S=.data    G=DGROUP   M=IniFiles ACBP=A9
 0002:00000BBC 00000008 C=DATA     S=.data    G=DGROUP   M=Registry ACBP=A9
 0002:00000BC4 00000040 C=DATA     S=.data    G=DGROUP   M=StdVCL   ACBP=A9
 0002:00000C04 0000005E C=DATA     S=.data    G=DGROUP   M=StrUtils ACBP=A9
 0002:00000C64 00000003 C=DATA     S=.data    G=DGROUP   M=VarConv  ACBP=A9
 0002:00000C68 0000001C C=DATA     S=.data    G=DGROUP   M=VarCmplx ACBP=A9
 0002:00000C84 00000009 C=DATA     S=.data    G=DGROUP   M=MaskUtils ACBP=A9
 0002:00000C90 00000050 C=DATA     S=.data    G=DGROUP   M=Mtx      ACBP=A9
 0002:00000CE0 000004D0 C=DATA     S=.data    G=DGROUP   M=ComSvcs  ACBP=A9
 0002:000011B0 00000240 C=DATA     S=.data    G=DGROUP   M=ADOInt   ACBP=A9
 0002:000013F0 00000070 C=DATA     S=.data    G=DGROUP   M=COMAdmin ACBP=A9
 0002:00001460 00000039 C=DATA     S=.data    G=DGROUP   M=Mapi     ACBP=A9
 0002:0000149C 00000230 C=DATA     S=.data    G=DGROUP   M=msxml    ACBP=A9
 0002:000016CC 00000D70 C=DATA     S=.data    G=DGROUP   M=OleDB    ACBP=A9
 0002:00003000 00000714 C=BSS      S=.bss     G=DGROUP   M=System   ACBP=A9
 0002:00003714 00000018 C=BSS      S=.bss     G=DGROUP   M=SysInit  ACBP=A9
 0002:0000372C 00000004 C=BSS      S=.bss     G=DGROUP   M=Types    ACBP=A9
 0002:00003730 00000004 C=BSS      S=.bss     G=DGROUP   M=Windows  ACBP=A9
 0002:00003734 00000004 C=BSS      S=.bss     G=DGROUP   M=SysConst ACBP=A9
 0002:00003738 00000124 C=BSS      S=.bss     G=DGROUP   M=SysUtils ACBP=A9
 0002:0000385C 0000005C C=BSS      S=.bss     G=DGROUP   M=VarUtils ACBP=A9
 0002:000038B8 00000184 C=BSS      S=.bss     G=DGROUP   M=Variants ACBP=A9
 0002:00003A3C 00000004 C=BSS      S=.bss     G=DGROUP   M=Messages ACBP=A9
 0002:00003A40 00000004 C=BSS      S=.bss     G=DGROUP   M=RTLConsts ACBP=A9
 0002:00003A44 00000004 C=BSS      S=.bss     G=DGROUP   M=TypInfo  ACBP=A9
 0002:00003A48 00000004 C=BSS      S=.bss     G=DGROUP   M=ActiveX  ACBP=A9
 0002:00003A4C 00000044 C=BSS      S=.bss     G=DGROUP   M=Classes  ACBP=A9
 0002:00003A90 00000004 C=BSS      S=.bss     G=DGROUP   M=SyncObjs ACBP=A9
 0002:00003A94 00000004 C=BSS      S=.bss     G=DGROUP   M=ComConst ACBP=A9
 0002:00003A98 00000011 C=BSS      S=.bss     G=DGROUP   M=ComObj   ACBP=A9
 0002:00003AAC 00000004 C=BSS      S=.bss     G=DGROUP   M=VCLCom   ACBP=A9
 0002:00003AB0 00000004 C=BSS      S=.bss     G=DGROUP   M=Math     ACBP=A9
 0002:00003AB4 00000004 C=BSS      S=.bss     G=DGROUP   M=Contnrs  ACBP=A9
 0002:00003AB8 00000018 C=BSS      S=.bss     G=DGROUP   M=ConvUtils ACBP=A9
 0002:00003AD0 00000004 C=BSS      S=.bss     G=DGROUP   M=DateUtils ACBP=A9
 0002:00003AD4 00000004 C=BSS      S=.bss     G=DGROUP   M=IniFiles ACBP=A9
 0002:00003AD8 00000004 C=BSS      S=.bss     G=DGROUP   M=Masks    ACBP=A9
 0002:00003ADC 00000004 C=BSS      S=.bss     G=DGROUP   M=Registry ACBP=A9
 0002:00003AE0 00000118 C=BSS      S=.bss     G=DGROUP   M=StdConvs ACBP=A9
 0002:00003BF8 00000004 C=BSS      S=.bss     G=DGROUP   M=StdVCL   ACBP=A9
 0002:00003BFC 00000004 C=BSS      S=.bss     G=DGROUP   M=StrUtils ACBP=A9
 0002:00003C00 00000008 C=BSS      S=.bss     G=DGROUP   M=VarConv  ACBP=A9
 0002:00003C08 00000004 C=BSS      S=.bss     G=DGROUP   M=VarCmplx ACBP=A9
 0002:00003C0C 00000004 C=BSS      S=.bss     G=DGROUP   M=MaskUtils ACBP=A9
 0002:00003C10 00000008 C=BSS      S=.bss     G=DGROUP   M=HelpIntfs ACBP=A9
 0002:00003C18 00000004 C=BSS      S=.bss     G=DGROUP   M=WinSock  ACBP=A9
 0002:00003C1C 00000194 C=BSS      S=.bss     G=DGROUP   M=ScktComp ACBP=A9
 0002:00003DB0 00000004 C=BSS      S=.bss     G=DGROUP   M=AccCtrl  ACBP=A9
 0002:00003DB4 00000004 C=BSS      S=.bss     G=DGROUP   M=AclAPI   ACBP=A9
 0002:00003DB8 00000004 C=BSS      S=.bss     G=DGROUP   M=Mtx      ACBP=A9
 0002:00003DBC 00000004 C=BSS      S=.bss     G=DGROUP   M=ComSvcs  ACBP=A9
 0002:00003DC0 00000004 C=BSS      S=.bss     G=DGROUP   M=ADOInt   ACBP=A9
 0002:00003DC4 00000004 C=BSS      S=.bss     G=DGROUP   M=AspTlb   ACBP=A9
 0002:00003DC8 00000004 C=BSS      S=.bss     G=DGROUP   M=COMAdmin ACBP=A9
 0002:00003DCC 00000004 C=BSS      S=.bss     G=DGROUP   M=CommCtrl ACBP=A9
 0002:00003DD0 00000004 C=BSS      S=.bss     G=DGROUP   M=ShellAPI ACBP=A9
 0002:00003DD4 00000004 C=BSS      S=.bss     G=DGROUP   M=RegStr   ACBP=A9
 0002:00003DD8 00000004 C=BSS      S=.bss     G=DGROUP   M=WinInet  ACBP=A9
 0002:00003DDC 00000004 C=BSS      S=.bss     G=DGROUP   M=UrlMon   ACBP=A9
 0002:00003DE0 00000004 C=BSS      S=.bss     G=DGROUP   M=ShlObj   ACBP=A9
 0002:00003DE4 00000004 C=BSS      S=.bss     G=DGROUP   M=CommDlg  ACBP=A9
 0002:00003DE8 00000004 C=BSS      S=.bss     G=DGROUP   M=Cpl      ACBP=A9
 0002:00003DEC 00000004 C=BSS      S=.bss     G=DGROUP   M=DDEml    ACBP=A9
 0002:00003DF0 00000004 C=BSS      S=.bss     G=DGROUP   M=Dlgs     ACBP=A9
 0002:00003DF4 00000034 C=BSS      S=.bss     G=DGROUP   M=FlatSB   ACBP=A9
 0002:00003E28 00000004 C=BSS      S=.bss     G=DGROUP   M=ImageHlp ACBP=A9
 0002:00003E2C 00000004 C=BSS      S=.bss     G=DGROUP   M=Imm      ACBP=A9
 0002:00003E30 00000004 C=BSS      S=.bss     G=DGROUP   M=Isapi    ACBP=A9
 0002:00003E34 00000004 C=BSS      S=.bss     G=DGROUP   M=Isapi2   ACBP=A9
 0002:00003E38 00000004 C=BSS      S=.bss     G=DGROUP   M=LZExpand ACBP=A9
 0002:00003E3C 00000004 C=BSS      S=.bss     G=DGROUP   M=Mapi     ACBP=A9
 0002:00003E40 00000004 C=BSS      S=.bss     G=DGROUP   M=MMSystem ACBP=A9
 0002:00003E44 00000004 C=BSS      S=.bss     G=DGROUP   M=msxml    ACBP=A9
 0002:00003E48 00000031 C=BSS      S=.bss     G=DGROUP   M=MultiMon ACBP=A9
 0002:00003E7C 00000004 C=BSS      S=.bss     G=DGROUP   M=Nb30     ACBP=A9
 0002:00003E80 00000004 C=BSS      S=.bss     G=DGROUP   M=Nsapi    ACBP=A9
 0002:00003E84 00000004 C=BSS      S=.bss     G=DGROUP   M=Ns30Fix  ACBP=A9
 0002:00003E88 00000004 C=BSS      S=.bss     G=DGROUP   M=Ns35Fix  ACBP=A9
 0002:00003E8C 00000004 C=BSS      S=.bss     G=DGROUP   M=Ns36Fix  ACBP=A9
 0002:00003E90 00000004 C=BSS      S=.bss     G=DGROUP   M=OleDB    ACBP=A9
 0002:00003E94 00000004 C=BSS      S=.bss     G=DGROUP   M=OleDlg   ACBP=A9
 0002:00003E98 00000004 C=BSS      S=.bss     G=DGROUP   M=OpenGL   ACBP=A9
 0002:00003E9C 00000004 C=BSS      S=.bss     G=DGROUP   M=PenWin   ACBP=A9
 0002:00003EA0 00000004 C=BSS      S=.bss     G=DGROUP   M=PsAPI    ACBP=A9
 0002:00003EA4 00000004 C=BSS      S=.bss     G=DGROUP   M=RichEdit ACBP=A9
 0002:00003EA8 00000004 C=BSS      S=.bss     G=DGROUP   M=SHFolder ACBP=A9
 0002:00003EAC 00000004 C=BSS      S=.bss     G=DGROUP   M=TlHelp32 ACBP=A9
 0002:00003EB0 00000004 C=BSS      S=.bss     G=DGROUP   M=WinSpool ACBP=A9
 0002:00003EB4 00000004 C=BSS      S=.bss     G=DGROUP   M=WinSvc   ACBP=A9


  Address         Publics by Name

 0002:00003724       .1
 0002:00003EA4       .1
 0002:00003EA0       .1
 0002:00003BF8       .1
 0002:0000372C       .1
 0002:00003BFC       .1
 0002:00003DE8       .1
 0002:00003C18       .1
 0002:00003DB0       .1
 0002:00003DB4       .1
 0002:00003DBC       .1
 0002:00003DB8       .1
 0002:00003DE4       .1
 0002:00003E90       .1
 0002:00003DE0       .1
 0002:0000385C       .1
 0002:00003734       .1
 0002:00003AD0       .1
 0002:00003E8C       .1
 0002:00003DDC       .1
 0002:00003DD8       .1
 0002:00003EA8       .1
 0002:00003DC8       .1
 0002:00003E94       .1
 0002:00003E98       .1
 0002:00003E9C       .1
 0002:00003EAC       .1
 0002:00003E3C       .1
 0002:00003EB4       .1
 0002:00003E38       .1
 0002:00003E34       .1
 0002:00003E88       .1
 0002:00003DD4       .1
 0002:00003E84       .1
 0002:00003A40       .1
 0002:00003A3C       .1
 0002:00003E80       .1
 0002:00003DD0       .1
 0002:00003E30       .1
 0002:00003E2C       .1
 0002:00003DCC       .1
 0002:00003C00       .1
 0002:00003A94       .1
 0002:00003BF4       .1
 0002:00003E7C       .1
 0002:00003E68       .1
 0002:00003E28       .1
 0002:00003E14       .1
 0002:00003C08       .1
 0002:00003DF0       .1
 0002:00003DEC       .1
 0002:00003AB0       .2
 0002:00003C0C       .2
 0002:00003AAC       .2
 0002:00003C10       .2
 0002:00003AB4       .21
 0002:00003EB0       .3
 0002:00003730       .3
 0002:00003A48       .3
 0002:00003DC4       .3
 0002:00003AD8       .3
 0002:00003A54       .35
 0002:00003C1C       .41
 0002:00003A98       .41
 0002:00003AB8       .5
 0002:00003ADC       .5
 0002:00003DC0       .5
 0002:000035C4       .5
 0002:00003E44       .6
 0002:00003A90       .6
 0002:00003A44       .6
 0002:00003E40       .7
 0002:00003AD4       .8
 0002:000038D8       .81
 0002:00003848       .94
 0001:000027B0       @AbstractError
 0001:00006A20       @AddRef
 0001:00006960       @AddRefArray
 0001:00006930       @AddRefRecord
 0001:00004B10       @AfterConstruction
 0001:0000283C       @Append
 0001:000048DC       @AsClass
 0001:00005784       @Assert
 0001:00002AA0       @Assign
 0001:00002DA0       @AStrCmp
 0001:00004B20       @BeforeDestruction
 0001:00002C04       @BlockRead
 0001:00002C24       @BlockWrite
 0001:0000465C       @BoundErr
 0001:00004940       @CallDynaClass
 0001:00004928       @CallDynaInst
 0001:000081DC       @CheckAutoResult
 0001:00004AB8       @ClassCreate
 0001:00004B08       @ClassDestroy
 0001:00002C44       @Close
 0001:000035D4       @CloseFile
 0001:00002224       @Copy
 0001:00006B60       @CopyArray
 0001:00006B48       @CopyObject
 0001:00006A2C       @CopyRecord
 0001:00002704       @COS
 0001:00002268       @Delete
 0001:00006FB0       @DispCallByIDError
 0001:00006DA8       @DispInvoke
 0001:00006C68       @Dispose
 0001:00005060       @DoneExcept
 0001:00007940       @DynArrayAddRef
 0001:00007918       @DynArrayAsg
 0001:000078DC       @DynArrayClear
 0001:000077C8       @DynArrayCopy
 0001:000077E8       @DynArrayCopyRange
 0001:00007608       @DynArrayHigh
 0001:00007600       @DynArrayLength
 0001:000077BC       @DynArraySetLength
 0001:00003DD0       @EmitDigits
 0001:00002E10       @EofFile
 0001:00002E2C       @EofText
 0001:00002E64       @Eoln
 0001:00002EBC       @Erase
 0001:00005148       @ExceptionHandler
 0001:00002714       @EXP
 0001:00004478       @Ext2Real
 0001:00004548       @Fail
 0001:00003060       @FilePos
 0001:000030B0       @FileSize
 0001:000030FC       @FillChar
 0001:00006924       @Finalize
 0001:00006838       @FinalizeArray
 0001:00006804       @FinalizeRecord
 0001:0000496C       @FindDynaClass
 0001:00004954       @FindDynaInst
 0001:00002B5C       @Flush
 0001:00004650       @FpuInit
 0001:0000458C       @FpuMaskInit
 0001:0000275C       @FRAC
 0001:00001FE4       @FreeMem
 0001:00002EFC       @FSafeDivide
 0001:00002EF4       @FSafeDivideR
 0001:00001FC4       @GetMem
 0001:0005F554       @GetPackageInfoTable
 0001:00008A00       @GetTls
 0001:00005764       @Halt
 0001:0000568C       @Halt0
 0001:00004C34       @HandleAnyException
 0001:00004F20       @HandleAutoException
 0001:00004EE8       @HandleFinally
 0001:00004D60       @HandleOnException
 0001:000067F8       @Initialize
 0001:00006764       @InitializeArray
 0001:00006734       @InitializeRecord
 0001:00005534       @InitImports
 0001:00008A70       @InitPkg
 0001:0000550C       @InitResStringImports
 0001:000054E8       @InitResStrings
 0001:00005558       @InitWideStrings
 0001:00002380       @Insert
 0001:0000272C       @INT
 0001:0000809C       @IntfAddRef
 0001:00008070       @IntfCast
 0001:0000802C       @IntfClear
 0001:00008044       @IntfCopy
 0001:00006FA8       @IntfDispCall
 0001:00006FB8       @IntfVarCall
 0001:00004664       @IntOver
 0001:000048B8       @IsClass
 0001:0000455C       @isNECWindows
 0001:00002298       @LGetDir
 0001:00005CF4       @LStrAddRef
 0001:0000584C       @LStrArrayClr
 0001:0000587C       @LStrAsg
 0001:00005B14       @LStrCat
 0001:00005B58       @LStrCat3
 0001:00005BCC       @LStrCatN
 0001:00005828       @LStrClr
 0001:00005C50       @LStrCmp
 0001:00005D6C       @LStrCopy
 0001:00005DAC       @LStrDelete
 0001:00005AA0       @LStrFromArray
 0001:00005A08       @LStrFromChar
 0001:00005A28       @LStrFromPChar
 0001:00005918       @LStrFromPCharLen
 0001:00005A58       @LStrFromPWChar
 0001:0000597C       @LStrFromPWCharLen
 0001:00005A94       @LStrFromString
 0001:00005AB8       @LStrFromWArray
 0001:00005A18       @LStrFromWChar
 0001:00005AD4       @LStrFromWStr
 0001:00005DF4       @LStrInsert
 0001:000058C0       @LStrLAsg
 0001:00005B0C       @LStrLen
 0001:00005EFC       @LStrOfChar
 0001:00005E50       @LStrPos
 0001:00005E98       @LStrSetLength
 0001:00005D04       @LStrToPChar
 0001:00005AE8       @LStrToString
 0001:00006C54       @New
 0001:000058EC       @NewAnsiString
 0001:000060AC       @NewWideString
 0001:00004524       @ObjCopy
 0001:000044C4       @ObjSetup
 0001:00006EAC       @OleVarFromInt
 0001:00006E9C       @OleVarFromLStr
 0001:00006E94       @OleVarFromPStr
 0001:00006EA4       @OleVarFromVar
 0001:000052F0       @PackageLoad
 0001:0005F55C       @PackageLoad
 0001:00008AD4       @PackageLoad
 0001:00008AE0       @PackageUnload
 0001:0005F568       @PackageUnload
 0001:00005368       @PackageUnload
 0001:00002620       @Pos
 0001:00004168       @Pow10
 0001:00002C9C       @PStrCat
 0001:00002D1C       @PStrCmp
 0001:00002CF4       @PStrCpy
 0001:00002CC4       @PStrNCat
 0001:00002D00       @PStrNCpy
 0001:0000500C       @RaiseAgain
 0001:00004FE4       @RaiseExcept
 0001:00003140       @RandExt
 0001:00003124       @RandInt
 0001:000031F0       @ReadChar
 0001:00003334       @ReadCString
 0001:000034E8       @ReadExt
 0001:00007384       @ReadInt64
 0001:00003540       @ReadLn
 0001:0000325C       @ReadLong
 0001:00003340       @ReadLString
 0001:00003168       @ReadRec
 0001:00003328       @ReadString
 0001:000033D0       @ReadWChar
 0001:00003428       @ReadWCString
 0001:0000349C       @ReadWString
 0001:00004448       @Real2Ext
 0001:00002004       @ReallocMem
 0001:00003570       @Rename
 0001:000036DC       @ResetFile
 0001:00002824       @ResetText
 0001:000036F8       @RewritFile
 0001:00002830       @RewritText
 0001:00002780       @ROUND
 0001:00005770       @Run0Error
 0001:00005778       @RunError
 0001:00003E40       @ScaleExt
 0001:00003704       @Seek
 0001:00003738       @SeekEof
 0001:00003758       @SeekEoln
 0001:00003C9C       @SetElem
 0001:00003D18       @SetEq
 0001:00003DB0       @SetExpand
 0001:00003D3C       @SetIntersect
 0001:00003D48       @SetIntersect3
 0001:00003D2C       @SetLe
 0001:00002660       @SetLength
 0001:00003CC0       @SetRange
 0001:00002664       @SetString
 0001:00003D84       @SetSub
 0001:00003D94       @SetSub3
 0001:00003784       @SetTextBuf
 0001:00003D60       @SetUnion
 0001:00003D6C       @SetUnion3
 0001:00002310       @SGetDir
 0001:0000274C       @SIN
 0001:000053E0       @StartExe
 0001:00005420       @StartLib
 0001:00004040       @Str0Ext
 0001:00007338       @Str0Int64
 0001:0000380C       @Str0Long
 0001:00004050       @Str1Ext
 0001:00003E84       @Str2Ext
 0001:00007278       @StrInt64
 0001:0000090C       @strlen
 0001:000037AC       @StrLong
 0001:0000278C       @TRUNC
 0001:00003818       @Truncate
 0001:00005090       @TryFinallyExit
 0001:00005D5C       @UniqueStringA
 0001:00005D68       @UniqueStringW
 0001:0000405C       @ValExt
 0001:000073DC       @ValInt64
 0001:00003844       @ValLong
 0001:00006EB4       @VarAdd
 0001:00006FA0       @VarAddRef
 0001:00006EF0       @VarAnd
 0001:00006FD4       @VarArrayGet
 0001:00006FE0       @VarArrayPut
 0001:00006FCC       @VarArrayRedim
 0001:00006DC0       @VarCast
 0001:00006DC8       @VarCastOle
 0001:00006DB0       @VarClear
 0001:00006F98       @VarClr
 0001:00006F38       @VarCmpEQ
 0001:00006F74       @VarCmpGE
 0001:00006F68       @VarCmpGT
 0001:00006F5C       @VarCmpLE
 0001:00006F50       @VarCmpLT
 0001:00006F44       @VarCmpNE
 0001:00006DB8       @VarCopy
 0001:00006F90       @VarCopyNoInd
 0001:00006ED8       @VarDiv
 0001:00006E44       @VarFromBool
 0001:00006E5C       @VarFromCurr
 0001:00006E84       @VarFromDisp
 0001:00006E8C       @VarFromDynArray
 0001:00006E28       @VarFromInt
 0001:00006E30       @VarFromInt64
 0001:00006E7C       @VarFromIntf
 0001:00006E6C       @VarFromLStr
 0001:00006E64       @VarFromPStr
 0001:00006E4C       @VarFromReal
 0001:00006E54       @VarFromTDateTime
 0001:00006E74       @VarFromWStr
 0001:00006EE4       @VarMod
 0001:00006ECC       @VarMul
 0001:00006F80       @VarNeg
 0001:00006F88       @VarNot
 0001:00006EFC       @VarOr
 0001:00006F2C       @VarRDiv
 0001:00006F14       @VarShl
 0001:00006F20       @VarShr
 0001:00006EC0       @VarSub
 0001:00006DE0       @VarToBool
 0001:00006DF0       @VarToCurr
 0001:00006E18       @VarToDisp
 0001:00006E20       @VarToDynArray
 0001:00006DD0       @VarToInt
 0001:00006DD8       @VarToInt64
 0001:00006E10       @VarToIntf
 0001:00006E00       @VarToLStr
 0001:00006DF8       @VarToPStr
 0001:00006DE8       @VarToReal
 0001:00006E08       @VarToWStr
 0001:00006F08       @VarXor
 0001:00003AE0       @Write0Bool
 0001:00003A6C       @Write0Char
 0001:00003B64       @Write0CString
 0001:00003BDC       @Write0Ext
 0001:0000737C       @Write0Int64
 0001:00003B28       @Write0Long
 0001:00005F28       @Write0LString
 0001:00003B30       @Write0String
 0001:00006FC4       @Write0Variant
 0001:0000603C       @Write0WChar
 0001:00005FC4       @Write0WCString
 0001:00005F50       @Write0WString
 0001:00003BD0       @Write1Ext
 0001:00003B9C       @Write2Ext
 0001:00003ACC       @WriteBool
 0001:0000399C       @WriteBytes
 0001:00003AA8       @WriteChar
 0001:00003B6C       @WriteCString
 0001:00007354       @WriteInt64
 0001:00003BEC       @WriteLn
 0001:00003AE8       @WriteLong
 0001:00005F30       @WriteLString
 0001:00003910       @WriteRec
 0001:000039F0       @WriteSpaces
 0001:00003B3C       @WriteString
 0001:00006FBC       @WriteVariant
 0001:00006044       @WriteWChar
 0001:00005FCC       @WriteWCString
 0001:00005F58       @WriteWString
 0001:00006714       @WStrAddRef
 0001:000060EC       @WStrArrayClr
 0001:00006110       @WStrAsg
 0001:00006350       @WStrCat
 0001:000063B0       @WStrCat3
 0001:00006414       @WStrCatN
 0001:000060D4       @WStrClr
 0001:0000645C       @WStrCmp
 0001:000064E0       @WStrCopy
 0001:0000652C       @WStrDelete
 0001:00006284       @WStrFromArray
 0001:000061EC       @WStrFromChar
 0001:000062B8       @WStrFromLStr
 0001:0000620C       @WStrFromPChar
 0001:0000613C       @WStrFromPCharLen
 0001:0000623C       @WStrFromPWChar
 0001:000061C8       @WStrFromPWCharLen
 0001:00006278       @WStrFromString
 0001:0000629C       @WStrFromWArray
 0001:000061FC       @WStrFromWChar
 0001:000065BC       @WStrInsert
 0001:00006134       @WStrLAsg
 0001:00006344       @WStrLen
 0001:000066EC       @WStrOfWChar
 0001:00006658       @WStrPos
 0001:000066A8       @WStrSetLength
 0001:00006334       @WStrToPWChar
 0001:000062C8       @WStrToString
 0001:00003C64       @_ArrayToPasStr
 0001:00003C40       @_CLenToPasStr
 0001:00003C34       @_CToPasStr
 0001:000021BC       @_IOTest
 0001:00007034       @_lldiv
 0001:000070B0       @_lldivo
 0001:00007134       @_llmod
 0001:000071B0       @_llmodo
 0001:00006FEC       @_llmul
 0001:00007010       @_llmulo
 0001:00007238       @_llshl
 0001:000070E8       @_lludiv
 0001:000071E8       @_llumod
 0001:00007258       @_llushr
 0001:00003C7C       @_PasToCStr
 0001:00011AC4       Abort
 0001:0001226C       AbstractErrorHandler
 0002:0000302C       AbstractErrorProc
 0001:00057BB8       AccCtrl
 0001:00053530       accept
 0002:000003C4       AccessMode
 0001:00057BF0       AclAPI
 0001:000020FC       AcquireExceptionObject
 0001:000293D0       ActivateClassGroup
 0001:000253FC       ActiveX
 0001:00000A40       AddBlockAfter
 0002:00000A10       AddDataModule
 0001:0000B434       AddExitProc
 0001:0002EC14       AddFinished
 0001:00007EC0       AddModuleUnloadProc
 0001:00007ED0       AddModuleUnloadProc
 0001:0002EC4C       AddNotFinished
 0002:0000148C       Address
 0001:000142D8       AddTerminateProc
 0001:000363A0       AddThread
 0001:0000BE08       AdjustLineBreaks
 0001:00059E14       ADOInt
 0001:00014334       AL1
 0002:00000594       AL1s
 0001:00014344       AL2
 0002:000005A4       AL2s
 0001:00038548       AllocateHWnd
 0001:0000B3E8       AllocMem
 0002:000035BC       AllocMemCount
 0002:000035C0       AllocMemSize
 0001:00008930       AllocTlsBuffer
 0001:000143B0       ALR
 0001:0001435C       ALV
 0001:0003295C       AncestorValid
 0001:0003DBF8       Annuity2
 0001:00012BAC       AnsiCompareFileName
 0001:0000B694       AnsiCompareStr
 0001:0000B6E4       AnsiCompareText
 0001:0004D78C       AnsiContainsStr
 0001:0004D5C8       AnsiContainsText
 0001:0000BDD4       AnsiDequotedStr
 0001:0004D808       AnsiEndsStr
 0001:0004D684       AnsiEndsText
 0001:0000BCD4       AnsiExtractQuotedStr
 0001:0004D8B8       AnsiIndexStr
 0001:0004D744       AnsiIndexText
 0001:0000CA88       AnsiLastChar
 0001:0000B660       AnsiLowerCase
 0001:00012C2C       AnsiLowerCaseFileName
 0001:0004D89C       AnsiMatchStr
 0001:0004D728       AnsiMatchText
 0001:00012B74       AnsiPos
 0001:0000BBB0       AnsiQuotedStr
 0001:0004D6D0       AnsiReplaceStr
 0001:0004D6FC       AnsiReplaceText
 0002:00000C24       AnsiResemblesProc
 0001:0004D5B0       AnsiResemblesText
 0001:0000B6CC       AnsiSameStr
 0001:0000B71C       AnsiSameText
 0001:0004D7A4       AnsiStartsStr
 0001:0004D638       AnsiStartsText
 0001:0000B734       AnsiStrComp
 0001:0000B754       AnsiStrIComp
 0001:0000CA60       AnsiStrLastChar
 0001:0000B774       AnsiStrLComp
 0001:0000B794       AnsiStrLIComp
 0001:0000B7B4       AnsiStrLower
 0001:00012D44       AnsiStrPos
 0001:00012DE4       AnsiStrRScan
 0001:00012E0C       AnsiStrScan
 0001:0000B7C4       AnsiStrUpper
 0001:00008670       AnsiToUtf8
 0001:0000931C       AnsiUpperBuff
 0001:0000B62C       AnsiUpperCase
 0001:00012CB8       AnsiUpperCaseFileName
 0001:0001C8C8       AnyOp
 0001:0001BCF4       AnyToIntf
 0001:0000FC24       AppendChars
 0001:0000FFE8       AppendFormat
 0001:0000FC88       AppendNumber
 0001:0000B4D8       AppendStr
 0001:0000FC68       AppendString
 0002:00000A20       ApplicationHandleException
 0002:00000A28       ApplicationShowException
 0002:00000B94       ApproxDaysPerMonth
 0002:00000B9C       ApproxDaysPerYear
 0001:0003DE18       ArcCos
 0001:0003E248       ArcCosh
 0001:0003E564       ArcCot
 0001:0003E5E0       ArcCotH
 0001:0003E5B8       ArcCsc
 0001:0003E640       ArcCscH
 0001:0003E590       ArcSec
 0001:0003E610       ArcSecH
 0001:0003DE58       ArcSin
 0001:0003E2E0       ArcSinh
 0001:0003DE98       ArcTan2
 0001:0003E3B8       ArcTanh
 0001:0003D938       ArgError
 0001:0005A838       AspTlb
 0001:00012250       AssertErrorHandler
 0002:00003024       AssertErrorProc
 0001:00022CF0       AssignLongStr
 0001:0004105C       AssignProc
 0001:0000B4B8       AssignStr
 0001:0002336C       AssignVariant
 0002:00003B38       auAcres
 0002:00003B3C       auAres
 0002:00003B3A       auCentares
 0002:00003B3E       auHectares
 0002:00003B24       auSquareCentimeters
 0002:00003B2A       auSquareDecameters
 0002:00003B26       auSquareDecimeters
 0002:00003B32       auSquareFeet
 0002:00003B2C       auSquareHectometers
 0002:00003B30       auSquareInches
 0002:00003B2E       auSquareKilometers
 0002:00003B28       auSquareMeters
 0002:00003B36       auSquareMiles
 0002:00003B22       auSquareMillimeters
 0002:00003B40       auSquareRods
 0002:00003B34       auSquareYards
 0002:00003610       avail
 0001:0000D5E8       BackfillGetDiskFreeSpaceEx
 0001:00015AC4       BackupVarBoolFromStr
 0001:00015C24       BackupVarBStrFromBool
 0001:00015B44       BackupVarBStrFromCy
 0001:00015BB4       BackupVarBStrFromDate
 0001:00015A58       BackupVarCyFromStr
 0001:000159EC       BackupVarDateFromStr
 0001:000158A8       BackupVarI4FromStr
 0001:00015854       BackupVariantChangeTypeEx
 0001:00015914       BackupVarR4FromStr
 0001:00015980       BackupVarR8FromStr
 0002:000006DC       BaseTypeMap
 0001:0001272C       Beep
 0001:000299D4       BeginGlobalLoading
 0001:000057DC       BeginThread
 0001:00053538       bind
 0001:00033EB4       BinToHex
 0001:00015890       BiUnimplemented
 0002:00000AD8       Blanks
 0002:00000AFC       BlockCode
 0002:000035E8       blockDescBlockList
 0002:000035EC       blockDescFreeList
 0001:00002B78       BlockIO
 0001:00001D28       BlockSum
 0002:00000854       BooleanIdents
 0002:000006D8       BooleanToStringRule
 0002:00000084       BoolStrs
 0001:0000C37C       BoolToStr
 0001:0001ADB0       BoolToWStrViaOS
 0001:00028454       Bounds
 0001:00008F04       Bounds
 0001:00012810       ByteToCharIndex
 0001:000127E8       ByteToCharLen
 0001:000127AC       ByteType
 0001:00012734       ByteTypeTest
 0002:00000B6C       C1
 0002:00000B74       C2
 0001:00038484       CalcJmpOffset
 0001:000142F8       CallTerminateProcs
 0001:00009324       CallWindowProc
 0002:00000860       CATID_Designer
 0002:00000870       CATID_WebDesigntimeControl
 0002:00003B20       cbArea
 0002:00003AE0       cbDistance
 0002:00003BA4       cbMass
 0002:00000770       CBooleanToRelationship
 0002:00003BC8       cbTemperature
 0002:00003BD4       cbTime
 0002:00000B7C       cBucketMasks
 0002:00003B42       cbVolume
 0002:00000BA4       CDayMap
 0001:0003DF80       Ceil
 0001:0004B8FC       CelsiusToFahrenheit
 0001:0004B958       CelsiusToKelvin
 0001:0004B9B4       CelsiusToRankine
 0001:0004BA24       CelsiusToReaumur
 0001:00008F20       CenterPoint
 0002:00000C74       cFormats
 0002:000038D0       ChangeAnyProc
 0001:0000CB08       ChangeFileExt
 0001:00005948       CharFromWChar
 0001:000129E4       CharLength
 0001:0000932C       CharLower
 0001:00009334       CharLowerBuff
 0001:0000933C       CharLowerBuffW
 0001:00009344       CharNext
 0001:00000864       CharNext
 0001:000128F8       CharToByteIndex
 0001:0001295C       CharToByteLen
 0001:0000934C       CharUpper
 0001:00009354       CharUpperBuff
 0001:0000935C       CharUpperBuffW
 0001:0000220C       ChDir
 0001:000021F8       ChDir
 0001:00054E08       CheckError
 0001:00013D88       CheckForDuplicateUnits
 0001:00004BB0       CheckJmp
 0001:0005483C       CheckSocketResult
 0001:0003644C       CheckSynchronize
 0001:0001D54C       CheckType
 0001:0001C954       CheckType
 0001:0001270C       CheckWin32Version
 0002:00000B84       CIllegalConvFamily
 0002:00000B88       CIllegalConvType
 0002:000006F4       CInvalidCustomVariantType
 0001:000386CC       Classes
 0001:0002942C       ClassGroupOf
 0001:00029480       ClassGroupOf
 0001:0003B8EC       ClassIDToProgID
 0001:0002908C       ClassNotFound
 0002:00000E60       CLASS_AppServer
 0002:00000EC0       CLASS_ByotServerEx
 0002:00001410       CLASS_COMAdminCatalog
 0002:00001450       CLASS_COMAdminCatalogCollection
 0002:00001430       CLASS_COMAdminCatalogObject
 0002:00000F00       CLASS_COMEvents
 0002:000011D0       CLASS_Command
 0002:00001060       CLASS_ComServiceEvents
 0002:00000F20       CLASS_CoMTSLocator
 0002:000011C0       CLASS_Connection
 0002:00001080       CLASS_CRMClerk
 0002:000010A0       CLASS_CRMRecoveryClerk
 0002:00001210       CLASS_DataFactory
 0002:00001200       CLASS_DataSpace
 0002:00001140       CLASS_DispenserManager
 0002:000015EC       CLASS_DOMDocument
 0002:000015FC       CLASS_DOMFreeThreadedDocument
 0002:00000E30       CLASS_Dummy30040732
 0002:000011A0       CLASS_EventServer
 0002:00000D80       CLASS_GetSecurityCallContextAppObject
 0002:000010D0       CLASS_LBEvents
 0002:000010F0       CLASS_MessageMover
 0002:00000F40       CLASS_MtsGrp
 0002:000011F0       CLASS_Parameter
 0002:000011E0       CLASS_Recordset
 0002:00000D60       CLASS_SecurityCallContext
 0002:00000D40       CLASS_SecurityCallers
 0002:00000D00       CLASS_SecurityCertificate
 0002:00000D20       CLASS_SecurityIdentity
 0002:00000CB0       CLASS_SharedPropertyGroupManager
 0002:00001170       CLASS_TrackerServer
 0002:00000C90       CLASS_TransactionContext
 0002:00000CA0       CLASS_TransactionContextEx
 0002:000016BC       CLASS_XMLDocument
 0002:0000163C       CLASS_XMLDSOControl
 0002:0000161C       CLASS_XMLHTTPRequest
 0001:000549A0       Cleanup
 0001:00042A1C       CleanUpLists
 0002:000038CC       ClearAnyProc
 0001:0003C870       ClearExcepInfo
 0001:00040260       ClearExceptions
 0001:0001FD4C       ClearVariantTypeList
 0001:000007EC       CloseHandle
 0001:00009014       CloseHandle
 0001:00053540       closesocket
 0001:000252F0       CLSIDFromProgID
 0001:0000B324       CLSIDFromString
 0001:000252E0       CLSIDFromString
 0002:000009A0       CLSID_CColorPropPage
 0002:00000990       CLSID_CFontPropPage
 0002:000009D0       CLSID_ConvertVBX
 0002:000009B0       CLSID_CPicturePropPage
 0002:0000171C       CLSID_DATALINKS
 0002:000016DC       CLSID_EXTENDEDERRORINFO
 0002:000016EC       CLSID_MSDAVTM
 0002:000016FC       CLSID_OLEDB_CONVERSIONLIBRARY
 0002:000016CC       CLSID_OLEDB_ENUMERATOR
 0002:0000170C       CLSID_OLEDB_ROWPOSITIONLIBRARY
 0002:000009C0       CLSID_PersistPropset
 0002:00000A00       CLSID_StdComponentCategoryMgr
 0002:000009E0       CLSID_StdFont
 0002:00000910       CLSID_StdMarshal
 0002:000009F0       CLSID_StdPicture
 0002:00003044       CmdLine
 0002:00003040       CmdShow
 0002:0000077C       CmpTypeMap
 0001:0001589C       CmpUnimplemented
 0002:00000B30       CoAddRefServerProcess
 0001:00059B38       CoCommand.Create
 0001:00059B9C       CoCommand.CreateRemote
 0001:00059A54       CoConnection.Create
 0001:00059AB8       CoConnection.CreateRemote
 0001:0000B2FC       CoCreateGuid
 0001:000252F8       CoCreateGuid
 0001:000252D0       CoCreateInstance
 0002:00000B28       CoCreateInstanceEx
 0001:000252B0       CoDisconnectObject
 0001:0005C828       CoDOMDocument.Create
 0001:0005C88C       CoDOMDocument.CreateRemote
 0001:0005C90C       CoDOMFreeThreadedDocument.Create
 0001:0005C970       CoDOMFreeThreadedDocument.CreateRemote
 0001:000252C8       CoGetInterfaceAndReleaseStream
 0002:00000CC4       CoGetObjectContextProc
 0002:00000B40       CoInitFlags
 0001:00025290       CoInitialize
 0002:00000B2C       CoInitializeEx
 0001:00029EF4       CollectionsEqual
 0001:000252B8       CoLockObjectExternal
 0001:0005A9D4       COMAdmin
 0001:000252C0       CoMarshalInterThreadInterfaceInStream
 0001:00035A08       CombineWideString
 0001:0003CC90       ComClassManager
 0002:00003AA0       ComClassManagerVar
 0001:00038CDC       ComConst
 0001:0005AA0C       CommCtrl
 0001:0005AB5C       CommDlg
 0001:00000D20       Commit
 0002:0000362C       committedRoot
 0001:0003CDA8       ComObj
 0001:000450C8       CompareDate
 0001:0004505C       CompareDateTime
 0001:0000B594       CompareMem
 0001:0000B564       CompareStr
 0001:0000901C       CompareString
 0001:00009024       CompareStringA
 0001:0000902C       CompareStringW
 0001:0000B5B4       CompareText
 0001:0004512C       CompareTime
 0001:0003EA44       CompareValue
 0001:0003EA90       CompareValue
 0001:0003EB0C       CompareValue
 0001:0003EAF8       CompareValue
 0001:0003EAC8       CompareValue
 0001:0000C2A4       CompareWith
 0001:00041E34       CompatibleConversionType
 0001:00041E28       CompatibleConversionTypes
 0002:00000C68       ComplexNumberSymbol
 0002:00000C6C       ComplexNumberSymbolBeforeImaginary
 0002:00000C70       ComplexVariantType
 0001:0002F950       ComponentCreated
 0001:0003DBCC       Compound
 0001:0000821C       CompToCurrency
 0001:000081F8       CompToDouble
 0001:00058E30       ComSvcs
 0001:0003F64C       ConditionP
 0001:00053548       connect
 0001:000415F4       Contnrs
 0001:0004BA64       ConvDateTimeToJulianDate
 0001:0004BAA4       ConvDateTimeToModifiedJulianDate
 0001:00041EF4       Convert
 0002:00000A68       Convert
 0001:00041FC4       Convert
 0002:00000A58       Convert
 0001:00011874       ConvertAddr
 0001:00034AE4       ConvertBinary
 0001:0000FD78       ConvertEraString
 0001:0000B2C0       ConvertError
 0001:0000B2D8       ConvertErrorFmt
 0001:00042004       ConvertFrom
 0001:000358F8       ConvertHeader
 0001:0003491C       ConvertHeader
 0001:00035F00       ConvertObject
 0001:000354C8       ConvertObject
 0001:00035898       ConvertOrderModifier
 0001:00035E2C       ConvertProperty
 0001:0003541C       ConvertProperty
 0001:000420C8       ConvertTo
 0001:00035A94       ConvertValue
 0001:00034BB4       ConvertValue
 0002:00003C04       ConvertVariantType
 0001:0000FEE0       ConvertYearString
 0001:00043280       ConvFamilyToDescription
 0001:0004BA84       ConvJulianDateToDateTime
 0001:0004BAC4       ConvModifiedJulianDateToDateTime
 0001:000431E4       ConvTypeToDescription
 0001:00041D2C       ConvTypeToFamily
 0001:00041C5C       ConvTypeToFamily
 0001:0004218C       ConvUnitAdd
 0001:0004248C       ConvUnitCompareValue
 0001:000423E0       ConvUnitDec
 0001:000423B8       ConvUnitDec
 0001:00042290       ConvUnitDiff
 0001:000422E8       ConvUnitInc
 0001:000422C0       ConvUnitInc
 0001:0004256C       ConvUnitSameValue
 0001:00042FAC       ConvUnitToStr
 0001:0004244C       ConvUnitWithinNext
 0001:0004240C       ConvUnitWithinPrevious
 0001:0004357C       ConvUtils
 0001:00059D00       CoParameter.Create
 0001:00059D64       CoParameter.CreateRemote
 0001:00007610       CopyArray
 0001:00031554       CopyBinary
 0001:000314C4       CopyBytes
 0001:00049C7C       CopyKeys
 0001:00031478       CopyList
 0001:00031408       CopySetBody
 0001:00049B54       CopyValues
 0001:00059C1C       CoRecordset.Create
 0001:00059C80       CoRecordset.CreateRemote
 0001:000252A0       CoRegisterClassObject
 0002:00000B34       CoReleaseServerProcess
 0002:00000B38       CoResumeClassObjects
 0001:000252A8       CoRevokeClassObject
 0001:0003DEDC       Cosecant
 0001:0003E14C       Cosh
 0001:0003E118       CoshSinh
 0002:00000B3C       CoSuspendClassObjects
 0001:0003E468       Cot
 0001:0003DEB8       Cotan
 0001:00025300       CoTaskMemAlloc
 0001:0000B31C       CoTaskMemFree
 0001:00025308       CoTaskMemFree
 0001:0003E4D4       CotH
 0001:00025298       CoUninitialize
 0001:00012868       CountChars
 0001:0002B7BC       CountGenerations
 0001:0005CBB8       CoXMLDocument.Create
 0001:0005CC1C       CoXMLDocument.CreateRemote
 0001:0005CAD4       CoXMLDSOControl.Create
 0001:0005CB38       CoXMLDSOControl.CreateRemote
 0001:0005C9F0       CoXMLHTTPRequest.Create
 0001:0005CA54       CoXMLHTTPRequest.CreateRemote
 0001:0005AB94       Cpl
 0002:000006F8       CRangeToType
 0001:00012194       CreateAssertException
 0001:0001231C       CreateAVObject
 0001:0003BD1C       CreateClassID
 0001:0003BA78       CreateComObject
 0001:0002F9D0       CreateComponent
 0001:0000D814       CreateDir
 0001:0000088C       CreateDirectory
 0001:00009034       CreateDirectory
 0001:00025348       CreateErrorInfo
 0001:0000903C       CreateEvent
 0001:00009044       CreateFile
 0001:000007F4       CreateFileA
 0001:0000B304       CreateGUID
 0001:000120C0       CreateInOutError
 0001:0003BC14       CreateOleObject
 0001:0003B918       CreateRegKey
 0001:0003BAB0       CreateRemoteComObject
 0001:0000904C       CreateSemaphore
 0001:00058118       CreateSharedPropertyGroup
 0001:000580B4       CreateSharedPropertyGroupManager
 0001:0000086C       CreateThread
 0001:00057FEC       CreateTransactionContext
 0001:00058050       CreateTransactionContextEx
 0001:0003D5D8       CreateVCLComObject
 0002:00000A40       CreateVCLComObjectProc
 0001:00009364       CreateWindowEx
 0002:00000840       CRelationshipToBoolean
 0002:00000C64       CRelationshipToRelationship
 0002:000006BC       CResult
 0001:0003E4B0       Csc
 0001:0003E534       CscH
 0002:00000C7C       cSign
 0002:000003BC       cSimpleBoolStrs
 0002:00000C28       CSoundexTable
 0002:000007E4       CText
 0002:00000838       CTruth
 0002:000007E0       CTruth
 0002:00003624       curAlloc
 0001:0001D610       CurrCompare
 0002:00003740       CurrencyDecimals
 0002:0000373C       CurrencyFormat
 0002:00003738       CurrencyString
 0001:0000823C       CurrencyToComp
 0002:00000A38       CurrentGroup
 0001:0000FC10       CurrentYear
 0001:0000F0D8       CurrToStr
 0001:0000F214       CurrToStrF
 0001:0001AD48       CurrToWStrViaOS
 0002:000005B4       CVarTypeToElementInfo
 0002:000003FC       CWNear
 0001:0003DB18       CycleToDeg
 0001:0003DB48       CycleToGrad
 0001:0003DA00       CycleToRad
 0001:0004889C       DataTypeToRegData
 0001:0000F9F0       Date
 0001:0001D5E8       DateCompare
 0001:000435D0       DateOf
 0001:0001CA18       DateOp
 0002:00003741       DateSeparator
 0001:0000D760       DateTimeToFileDate
 0001:000452F8       DateTimeToJulianDate
 0001:00045538       DateTimeToModifiedJulianDate
 0001:0001088C       DateTimeToStr
 0001:00010778       DateTimeToString
 0001:0000F918       DateTimeToSystemTime
 0001:0000F474       DateTimeToTimeStamp
 0001:000455AC       DateTimeToUnix
 0001:0001085C       DateToStr
 0001:0001AD7C       DateToWStrViaOS
 0001:00045A8C       DateUtils
 0001:000439C4       DayOf
 0001:00043F54       DayOfTheMonth
 0001:0004401C       DayOfTheWeek
 0001:00043E28       DayOfTheYear
 0001:0000F9C8       DayOfWeek
 0001:00044434       DaysBetween
 0001:0004381C       DaysInAMonth
 0001:000437D4       DaysInAYear
 0001:000437EC       DaysInMonth
 0001:000437BC       DaysInYear
 0001:000445CC       DaySpan
 0002:00000B90       DaysPerYear
 0002:000020EC       DBCIDGUID
 0002:000022D4       DBCOLUMN_BASECATALOGNAME
 0002:000021CC       DBCOLUMN_BASECOLUMNNAME
 0002:000022EC       DBCOLUMN_BASESCHEMANAME
 0002:000021E4       DBCOLUMN_BASETABLENAME
 0002:000023F4       DBCOLUMN_BASETABLEVERSION
 0002:000023DC       DBCOLUMN_CLSID
 0002:000021FC       DBCOLUMN_COLLATINGSEQUENCE
 0002:000023C4       DBCOLUMN_COLUMNSIZE
 0002:00002214       DBCOLUMN_COMPUTEMODE
 0002:0000237C       DBCOLUMN_DATETIMEPRECISION
 0002:0000222C       DBCOLUMN_DEFAULTVALUE
 0002:0000234C       DBCOLUMN_DOMAINCATALOG
 0002:00002244       DBCOLUMN_DOMAINNAME
 0002:00002364       DBCOLUMN_DOMAINSCHEMA
 0002:000021B4       DBCOLUMN_FLAGS
 0002:00002304       DBCOLUMN_GUID
 0002:0000225C       DBCOLUMN_HASDEFAULT
 0002:00002124       DBCOLUMN_IDNAME
 0002:00002274       DBCOLUMN_ISAUTOINCREMENT
 0002:0000228C       DBCOLUMN_ISCASESENSITIVE
 0002:000022A4       DBCOLUMN_ISSEARCHABLE
 0002:000022BC       DBCOLUMN_ISUNIQUE
 0002:0000240C       DBCOLUMN_KEYCOLUMN
 0002:00002424       DBCOLUMN_MAYSORT
 0002:0000213C       DBCOLUMN_NAME
 0002:00002154       DBCOLUMN_NUMBER
 0002:00002394       DBCOLUMN_NUMERICPRECISIONRADIX
 0002:000023AC       DBCOLUMN_OCTETLENGTH
 0002:00002184       DBCOLUMN_PRECISION
 0002:0000231C       DBCOLUMN_PROPID
 0002:0000219C       DBCOLUMN_SCALE
 0002:0000216C       DBCOLUMN_TYPE
 0002:00002334       DBCOLUMN_TYPEINFO
 0002:00001FAC       DBCOL_SELFCOLUMNS
 0002:00001FBC       DBCOL_SPECIALCOL
 0002:000020CC       DBGUID_DEFAULT
 0002:00001D9C       DBGUID_LIKE_DOS
 0002:00001DBC       DBGUID_LIKE_MAPI
 0002:00001DAC       DBGUID_LIKE_OFS
 0002:00001D8C       DBGUID_LIKE_SQL
 0002:00001B1C       DBGUID_MDX
 0002:000020DC       DBGUID_SQL
 0002:00001C4C       DBOBJECT_CHARACTERSET
 0002:00001C1C       DBOBJECT_COLLATION
 0002:00001BBC       DBOBJECT_COLUMN
 0002:00001BCC       DBOBJECT_DATABASE
 0002:00001C0C       DBOBJECT_DOMAIN
 0002:00001BDC       DBOBJECT_PROCEDURE
 0002:00001BFC       DBOBJECT_SCHEMA
 0002:00001C3C       DBOBJECT_SCHEMAROWSET
 0002:00001BAC       DBOBJECT_TABLE
 0002:00001C5C       DBOBJECT_TRANSLATION
 0002:00001C2C       DBOBJECT_TRUSTEE
 0002:00001BEC       DBOBJECT_VIEW
 0002:00001FDC       DBPROPSET_COLUMN
 0002:00001FEC       DBPROPSET_DATASOURCE
 0002:0000207C       DBPROPSET_DATASOURCEALL
 0002:00001FFC       DBPROPSET_DATASOURCEINFO
 0002:0000208C       DBPROPSET_DATASOURCEINFOALL
 0002:0000201C       DBPROPSET_DBINIT
 0002:0000209C       DBPROPSET_DBINITALL
 0002:0000200C       DBPROPSET_INDEX
 0002:0000205C       DBPROPSET_PROPERTIESINERROR
 0002:0000202C       DBPROPSET_ROWSET
 0002:000020AC       DBPROPSET_ROWSETALL
 0002:0000203C       DBPROPSET_SESSION
 0002:000020BC       DBPROPSET_SESSIONALL
 0002:0000204C       DBPROPSET_TABLE
 0002:00001B9C       DBPROPSET_TRUSTEE
 0002:0000206C       DBPROPSET_VIEW
 0002:00001DCC       DBSCHEMA_ASSERTIONS
 0002:00001DDC       DBSCHEMA_CATALOGS
 0002:00001DEC       DBSCHEMA_CHARACTER_SETS
 0002:00001E1C       DBSCHEMA_CHECK_CONSTRAINTS
 0002:00001DFC       DBSCHEMA_COLLATIONS
 0002:00001E0C       DBSCHEMA_COLUMNS
 0002:00001E7C       DBSCHEMA_COLUMN_DOMAIN_USAGE
 0002:00001E9C       DBSCHEMA_COLUMN_PRIVILEGES
 0002:00001E2C       DBSCHEMA_CONSTRAINT_COLUMN_USAGE
 0002:00001E3C       DBSCHEMA_CONSTRAINT_TABLE_USAGE
 0002:00001F7C       DBSCHEMA_FOREIGN_KEYS
 0002:00001E8C       DBSCHEMA_INDEXES
 0002:00001E4C       DBSCHEMA_KEY_COLUMN_USAGE
 0002:00001F8C       DBSCHEMA_PRIMARY_KEYS
 0002:00001ECC       DBSCHEMA_PROCEDURES
 0002:00001F9C       DBSCHEMA_PROCEDURE_COLUMNS
 0002:00001F6C       DBSCHEMA_PROCEDURE_PARAMETERS
 0002:00001F2C       DBSCHEMA_PROVIDER_TYPES
 0002:00001E5C       DBSCHEMA_REFERENTIAL_CONSTRAINTS
 0002:00001EDC       DBSCHEMA_SCHEMATA
 0002:00001EEC       DBSCHEMA_SQL_LANGUAGES
 0002:00001EFC       DBSCHEMA_STATISTICS
 0002:00001F0C       DBSCHEMA_TABLES
 0002:00001AFC       DBSCHEMA_TABLES_INFO
 0002:00001E6C       DBSCHEMA_TABLE_CONSTRAINTS
 0002:00001EAC       DBSCHEMA_TABLE_PRIVILEGES
 0002:00001F1C       DBSCHEMA_TRANSLATIONS
 0002:00001EBC       DBSCHEMA_USAGE_PRIVILEGES
 0002:00001F3C       DBSCHEMA_VIEWS
 0002:00001F4C       DBSCHEMA_VIEW_COLUMN_USAGE
 0002:00001F5C       DBSCHEMA_VIEW_TABLE_USAGE
 0002:000020FC       DB_NULLGUID
 0002:0000210C       DB_NULLID
 0002:00001D6C       DB_PROPERTY_AUTOMATICUPDATE
 0002:00001CEC       DB_PROPERTY_BTREE
 0002:00001C6C       DB_PROPERTY_CHECK_OPTION
 0002:00001CCC       DB_PROPERTY_CLUSTERED
 0002:00001C7C       DB_PROPERTY_CONSTRAINT_CHECK_DEFERRED
 0002:00001D2C       DB_PROPERTY_DISALLOWNULL
 0002:00001C8C       DB_PROPERTY_DROP_CASCADE
 0002:00001D7C       DB_PROPERTY_EXPLICITUPDATE
 0002:00001D0C       DB_PROPERTY_FILLFACTOR
 0002:00001CFC       DB_PROPERTY_HASH
 0002:00001D4C       DB_PROPERTY_IGNOREANYNULL
 0002:00001D3C       DB_PROPERTY_IGNORENULL
 0002:00001D1C       DB_PROPERTY_INITIALSIZE
 0002:00001CDC       DB_PROPERTY_NONCLUSTERED
 0002:00001CAC       DB_PROPERTY_ON_COMMIT_PRESERVE_ROWS
 0002:00001CBC       DB_PROPERTY_PRIMARY
 0002:00001D5C       DB_PROPERTY_SORTBOOKMARKS
 0002:00001C9C       DB_PROPERTY_UNIQUE
 0002:000003F8       DCon10
 0001:0005ABCC       DDEml
 0001:000385FC       DeallocateHWnd
 0002:0000001C       DebugHook
 0002:0000373F       DecimalSeparator
 0001:0001F62C       DecIndices
 0001:0000F8F8       DecodeDate
 0001:000449C8       DecodeDateDay
 0001:0000F7AC       DecodeDateFully
 0001:00044A38       DecodeDateMonthWeek
 0001:0004482C       DecodeDateTime
 0001:00044890       DecodeDateWeek
 0001:000451FC       DecodeDayOfWeekInMonth
 0001:0004DF58       DecodeSoundexInt
 0001:0004E104       DecodeSoundexWord
 0001:0000F61C       DecodeTime
 0001:00000DB4       Decommit
 0001:000013D0       DecommitFree
 0002:00003600       decommittedRoot
 0002:00000014       Default8087CW
 0002:00000C84       DefaultBlank
 0002:00000028       DefaultTextLineBreakStyle
 0002:00000488       DefLongDayNames
 0002:0000043C       DefLongMonthNames
 0002:0000046C       DefShortDayNames
 0002:0000040C       DefShortMonthNames
 0001:0000936C       DefWindowProc
 0001:0003DA88       DegToCycle
 0001:0003DA58       DegToGrad
 0001:0003D950       DegToRad
 0001:000079B0       DelayLoadResourceModule
 0001:00000A70       DeleteBlock
 0001:000009E0       DeleteCriticalSection
 0001:00009054       DeleteCriticalSection
 0001:0000905C       DeleteFile
 0001:0000CA24       DeleteFile
 0001:000007FC       DeleteFileA
 0001:00001218       DeleteFree
 0002:00001484       DeleteMail
 0001:0003B9B0       DeleteRegKey
 0001:00043470       DescriptionToConvFamily
 0001:0004331C       DescriptionToConvType
 0001:000433C4       DescriptionToConvType
 0001:00009374       DestroyWindow
 0002:00001490       Details
 0002:000002D8       dig
 0002:00001360       DIID_ConnectionEvents
 0002:00001380       DIID_RecordsetEvents
 0002:000015DC       DIID_XMLDOMDocumentEvents
 0001:0000C6AC       DirectoryExists
 0001:0000D68C       DiskFree
 0001:0000D6C0       DiskSize
 0001:0003C284       DispatchInvoke
 0001:0003C864       DispatchInvokeError
 0001:0000937C       DispatchMessage
 0001:0003C880       DispCall
 0001:0003C964       DispCallByID
 0002:00003000       DispCallByIDProc
 0001:0003C790       DispCallError
 0001:00025320       DispGetIDsOfNames
 0002:00000B68       DispIDArgs
 0001:00025328       DispInvoke
 0001:0000B49C       DisposeStr
 0001:0000B2A4       DivMod
 0001:0003D884       DivMod
 0001:0005AC04       Dlgs
 0001:0000B408       DoExitProc
 0001:00012648       DoneExceptions
 0001:000483C4       DoneMaskStates
 0001:00009064       DosDateTimeToFileTime
 0002:0000085C       DotSep
 0001:0003F49C       DoubleDecliningBalance
 0001:0000820C       DoubleToComp
 0001:0002C2E0       DoWrite
 0001:00038208       DoWriteHeight
 0001:000381A0       DoWriteHorizontalOffset
 0001:000381D4       DoWriteVerticalOffset
 0001:00038178       DoWriteWidth
 0001:000559BC       DropStream
 0002:00003AE4       duAngstroms
 0002:00003B06       duAstronomicalUnits
 0002:00003AEC       duCentimeters
 0002:00003B18       duChains
 0002:00003B0C       duCubits
 0002:00003AF2       duDecameters
 0002:00003AEE       duDecimeters
 0002:00003B0E       duFathoms
 0002:00003AFE       duFeet
 0002:00003B10       duFurlongs
 0002:00003AFA       duGigameters
 0002:00003B12       duHands
 0002:00003AF4       duHectometers
 0002:00003AFC       duInches
 0002:00003AF6       duKilometers
 0002:00003B08       duLightYears
 0002:00003B1A       duLinks
 0001:0000B83C       DumbItDownFor95
 0002:00003AF8       duMegameters
 0002:00003AF0       duMeters
 0002:00003AE2       duMicromicrons
 0002:00003AE8       duMicrons
 0002:00003B02       duMiles
 0002:00003AEA       duMillimeters
 0002:00003AE6       duMillimicrons
 0002:00003B04       duNauticalMiles
 0002:00003B14       duPaces
 0002:00003B0A       duParsecs
 0001:0004D900       DupeString
 0002:00003B1C       duPicas
 0002:00003B1E       duPoints
 0002:00003B16       duRods
 0002:00003B00       duYards
 0001:0001F5D8       DynArrayBounds
 0001:00007628       DynArrayClear
 0001:0001F550       DynArrayDim
 0001:00007968       DynArrayDim
 0001:0001F534       DynArrayElTypeInfo
 0001:0000794C       DynArrayElTypeInfo
 0001:0001FA58       DynArrayFromVariant
 0001:0001F4F4       DynArrayIndex
 0001:00007630       DynArraySetLength
 0001:0001F568       DynArraySize
 0001:0001F738       DynArrayToVariant
 0001:0001F698       DynArrayVariantBounds
 0001:0001F6F0       DynArrayVarType
 0001:00012094       EHeapException.FreeInstance
 0001:0001D450       EmptyCompare
 0001:0001CE08       EmptyOp
 0002:000038B8       EmptyParam
 0002:00000318       EmptyStr
 0002:00000320       EmptyWideStr
 0001:00009384       EnableScrollBar
 0001:0000F77C       EncodeDate
 0001:0004499C       EncodeDateDay
 0001:000449F4       EncodeDateMonthWeek
 0001:000447C4       EncodeDateTime
 0001:0004485C       EncodeDateWeek
 0001:0004523C       EncodeDayOfWeekInMonth
 0001:0000F5DC       EncodeTime
 0001:00029A5C       EndGlobalLoading
 0001:00043D94       EndOfADay
 0001:00043D2C       EndOfADay
 0001:00043C9C       EndOfAMonth
 0001:00043CE8       EndOfAWeek
 0001:00043C58       EndOfAYear
 0001:00043C0C       EndOfTheDay
 0001:00043B24       EndOfTheMonth
 0001:00043BB4       EndOfTheWeek
 0001:00043AB4       EndOfTheYear
 0001:00005820       EndThread
 0001:0003EEE8       EnsureRange
 0001:0003EE88       EnsureRange
 0001:0003EE78       EnsureRange
 0001:0000906C       EnterCriticalSection
 0001:000009D0       EnterCriticalSection
 0001:00009074       EnumCalendarInfoA
 0002:00003E64       EnumDisplayMonitors
 0001:000114E8       EnumEraNames
 0001:00011524       EnumEraYearOffsets
 0001:00007E6C       EnumModules
 0001:00007E5C       EnumModules
 0001:00007E94       EnumResourceModules
 0001:00007E64       EnumResourceModules
 0001:0000C3E8       EnumStringModules
 0001:0000907C       EnumSystemLocales
 0002:000035B8       envp
 0001:0003B73C       EOleException.Create
 0001:0003B66C       EOleSysError.Create
 0001:00008D98       EqualRect
 0002:00003808       EraNames
 0001:00010B18       EraToYear
 0002:00003824       EraYearOffsets
 0002:000002D0       errCaption
 0001:0002E7A0       Error
 0001:000021B0       Error
 0001:00028B90       Error
 0002:00000004       ErrorAddr
 0001:00002164       ErrorAt
 0001:00012140       ErrorHandler
 0002:000004A4       ErrorMap
 0002:00003008       ErrorProc
 0002:000033EC       ErrOutput
 0001:000020DC       ExceptAddr
 0002:0000300C       ExceptClsProc
 0001:000125B4       ExceptHandler
 0001:00011B2C       Exception.Create
 0001:00011B68       Exception.CreateFmt
 0001:00011E0C       Exception.CreateFmtHelp
 0001:00011DC4       Exception.CreateHelp
 0001:00011C60       Exception.CreateRes
 0001:00011BE8       Exception.CreateRes
 0001:00011C9C       Exception.CreateResFmt
 0001:00011D30       Exception.CreateResFmt
 0001:00011F5C       Exception.CreateResFmtHelp
 0001:00011FF8       Exception.CreateResFmtHelp
 0001:00011F14       Exception.CreateResHelp
 0001:00011E94       Exception.CreateResHelp
 0002:0000301C       ExceptionClass
 0001:00011880       ExceptionErrorMessage
 0002:000004DC       ExceptMap
 0001:000020BC       ExceptObject
 0002:00003010       ExceptObjProc
 0002:00003004       ExceptProc
 0001:00012B28       ExcludeTrailingBackslash
 0001:00012B3C       ExcludeTrailingPathDelimiter
 0002:00000000       ExitCode
 0001:000055D0       ExitDll
 0002:0000304C       ExitProc
 0001:0000087C       ExitProcess
 0002:00003028       ExitProcessProc
 0001:000089DC       ExitProcessTLS
 0002:000003B8       ExitProcList
 0001:00000874       ExitThread
 0001:000089B4       ExitThreadTLS
 0001:0000CD58       ExpandFileName
 0001:0000CD94       ExpandFileNameCase
 0001:0000D214       ExpandUNCFileName
 0001:0000CBD0       ExtractFileDir
 0001:0000CC44       ExtractFileDrive
 0001:0000CD10       ExtractFileExt
 0001:0000CCD8       ExtractFileName
 0001:0000CB9C       ExtractFilePath
 0001:0000D29C       ExtractFilePathNoDrive
 0001:0000D328       ExtractRelativePath
 0001:0000D4DC       ExtractShortPathName
 0001:0002A038       ExtractStrings
 0001:0004B8C8       FahrenheitToCelsius
 0001:0002535C       Failed
 0002:00003844       FalseBoolStrs
 0002:000003EC       FCon1E18
 0001:00053518       FD_SET
 0001:00053528       FD_ZERO
 0001:0000C634       FileAge
 0001:0000C62C       FileClose
 0001:0000C564       FileCreate
 0001:0000C588       FileCreate
 0001:0000D6F4       FileDateToDateTime
 0001:0000C69C       FileExists
 0001:0000C894       FileGetAttr
 0001:0000C7B4       FileGetDate
 0001:0000C8D0       FileIsReadOnly
 0002:0000000C       FileMode
 0001:00002884       FileNOPProc
 0001:0000C508       FileOpen
 0001:0000C590       FileRead
 0002:00000A4C       FilerSignature
 0001:0000D514       FileSearch
 0001:0000C5E8       FileSeek
 0001:0000C5F4       FileSeek
 0001:0000C8A8       FileSetAttr
 0001:0000C83C       FileSetDate
 0001:0000C804       FileSetDate
 0001:0000C8E8       FileSetReadOnly
 0001:00009084       FileTimeToDosDateTime
 0001:0000908C       FileTimeToLocalFileTime
 0001:0000C5BC       FileWrite
 0001:00001300       FillAfterGap
 0001:000012AC       FillBeforeGap
 0001:00001398       FillerSizeAfterGap
 0001:00001328       FillerSizeBeforeGap
 0001:00043508       Finalization
 0001:00015590       Finalization
 0001:0004EEF8       Finalization
 0001:00008F4C       Finalization
 0001:00009984       Finalization
 0001:0004B430       Finalization
 0001:0005B8A8       Finalization
 0001:00038C04       Finalization
 0001:0005B900       Finalization
 0001:0005F27C       Finalization
 0001:0005F0B0       Finalization
 0001:0004E2E8       Finalization
 0001:00020B54       Finalization
 0001:00020DDC       Finalization
 0001:00021164       Finalization
 0001:0005B258       Finalization
 0001:0005B220       Finalization
 0001:000094CC       Finalization
 0001:00048500       Finalization
 0001:0005B1E8       Finalization
 0001:00038624       Finalization
 0001:0005F2B4       Finalization
 0001:00045A5C       Finalization
 0001:0005B1B0       Finalization
 0001:0005B178       Finalization
 0001:0005AF38       Finalization
 0001:00038CAC       Finalization
 0001:0005F244       Finalization
 0001:0005ABD4       Finalization
 0001:000517BC       Finalization
 0001:0005AB9C       Finalization
 0001:0005F20C       Finalization
 0001:0005F120       Finalization
 0001:0005AB64       Finalization
 0001:0005AB2C       Finalization
 0001:0005AAF4       Finalization
 0001:0000881C       Finalization
 0001:0005AABC       Finalization
 0001:0005D554       Finalization
 0001:0005AA84       Finalization
 0001:0005D51C       Finalization
 0001:0005AA4C       Finalization
 0001:0005AA14       Finalization
 0001:000162D8       Finalization
 0001:0005A9DC       Finalization
 0001:00047C5C       Finalization
 0001:00052418       Finalization
 0001:0005D4E4       Finalization
 0001:00058E00       Finalization
 0001:0005A9A4       Finalization
 0001:000534D0       Finalization
 0001:0005D4AC       Finalization
 0001:0005D474       Finalization
 0001:0005D434       Finalization
 0001:0004D4C8       Finalization
 0001:00008AEC       Finalization
 0001:0005A808       Finalization
 0001:0005F1D4       Finalization
 0001:0003D600       Finalization
 0001:00059DE4       Finalization
 0001:0003CD28       Finalization
 0001:00053618       Finalization
 0001:0005F19C       Finalization
 0001:00057B50       Finalization
 0001:00040264       Finalization
 0001:00057B88       Finalization
 0001:0005F0E8       Finalization
 0001:000415C4       Finalization
 0001:0004BAE4       Finalization
 0001:00057BC0       Finalization
 0001:0005CC9C       Finalization
 0001:0005F164       Finalization
 0001:000253CC       Finalization
 0001:00023618       Finalization
 0001:00058194       Finalization
 0001:00007620       FinalizeArray
 0001:00013E5C       FinalizePackage
 0001:00005230       FinalizeUnits
 0001:000320CC       FindAncestor
 0001:00007A20       FindBS
 0001:0002914C       FindClass
 0001:000079A8       FindClassHInstance
 0001:00000894       FindClose
 0001:0000CA08       FindClose
 0001:00009094       FindClose
 0001:000138F8       FindCmdLineSwitch
 0001:000137E8       FindCmdLineSwitch
 0001:00013928       FindCmdLineSwitch
 0001:0000127C       FindCommitted
 0001:000209A4       FindCustomVariantType
 0001:00020A5C       FindCustomVariantType
 0001:0002FB80       FindExistingComponent
 0001:0000C994       FindFirst
 0001:0000909C       FindFirstFile
 0001:0000089C       FindFirstFile
 0001:000298EC       FindGlobalComponent
 0002:00003A60       FindGlobalComponentProcs
 0001:00007980       FindHInstance
 0001:00029794       FindIdentToInt
 0001:00029718       FindIntToIdent
 0001:00013BA0       FindLibModule
 0001:0000C930       FindMatchingFile
 0001:0002EB4C       FindNestedComponent
 0001:0000C9E4       FindNext
 0002:00001478       FindNext
 0001:000090A4       FindNextFile
 0001:0004DAF0       FindNextWordStart
 0001:00015FA0       FindProc
 0001:000218DC       FindPropInfo
 0001:000218B4       FindPropInfo
 0001:000090AC       FindResource
 0001:000079F8       FindResourceHInstance
 0001:0002B7A0       FindRootDesigner
 0001:0000C424       FindStringResource
 0001:000309F0       FindUniqueName
 0001:0001E7F8       FindVarData
 0002:00003858       FLanguages
 0001:0005AF68       FlatSB
 0002:00003DF4       FlatSB_EnableScrollBar
 0002:00003E00       FlatSB_GetScrollInfo
 0002:00003E04       FlatSB_GetScrollPos
 0001:0005AC0C       FlatSB_GetScrollProp
 0002:00003DFC       FlatSB_GetScrollRange
 0002:00003E0C       FlatSB_SetScrollInfo
 0002:00003E08       FlatSB_SetScrollPos
 0001:0005AC3C       FlatSB_SetScrollProp
 0002:00003E10       FlatSB_SetScrollRange
 0002:00003DF8       FlatSB_ShowScrollBar
 0001:0000F158       FloatToCurr
 0001:0001081C       FloatToDateTime
 0001:0000ED68       FloatToDecimal
 0001:0000F0A8       FloatToStr
 0001:0000F1DC       FloatToStrF
 0001:0000E79C       FloatToText
 0001:0000EA74       FloatToTextFmt
 0001:0003DFB0       Floor
 0001:00002B50       Flush
 0002:00000400       FMSecsPerDay
 0001:0000C4AC       FmtLoadStr
 0001:0000E0C0       FmtStr
 0001:0000C6D0       ForceDirectories
 0001:0000E0AC       Format
 0002:00000408       Format
 0001:0000DC18       FormatBuf
 0001:0000DC0C       FormatClearStr
 0001:0000F2A4       FormatCurr
 0001:000108A0       FormatDateTime
 0001:0000DBA0       FormatError
 0002:000003E4       FormatErrorStrs
 0001:0000F24C       FormatFloat
 0001:000523E4       FormatMaskText
 0001:000090B4       FormatMessage
 0001:0000DBF8       FormatVarToStr
 0001:00004160       FPower10
 0001:00014CEC       FreeAndNil
 0001:00022214       FreeAndNilProperties
 0002:00001488       FreeBuffer
 0001:00000FE8       FreeCommitted
 0001:000427AC       FreeConversionType
 0001:00001508       FreeCurAlloc
 0001:00037DD0       FreeIntConstList
 0001:000088F8       FreeLibrary
 0001:000008A4       FreeLibrary
 0001:000090BC       FreeLibrary
 0001:00008264       FreeMemory
 0001:00038524       FreeObjectInstance
 0001:000090D4       FreeResource
 0001:00000C68       FreeSpace
 0001:00014314       FreeTerminateProcs
 0001:0003DF3C       Frexp
 0001:0003F9A4       FutureValue
 0002:00003ABC       GConvFamilyList
 0002:00003AC8       GConvFamilySync
 0002:00003AC0       GConvTypeList
 0002:00003ACC       GConvTypeSync
 0002:00000B8C       GConvUnitToStrFmt
 0001:00014420       GDAL
 0001:000026FC       Get8087CW
 0001:000090DC       GetACP
 0001:00025330       GetActiveObject
 0001:0003BC5C       GetActiveOleObject
 0001:000009E8       GetBlockDesc
 0001:0000938C       GetCapture
 0001:000290F8       GetClass
 0001:00009394       GetClassInfo
 0001:0000930C       GetClipBox
 0001:00000984       GetCmdShow
 0001:000008AC       GetCommandLine
 0001:00000E34       GetCommitted
 0001:00000EC4       GetCommittedAt
 0001:00032F14       GetComponentValue
 0001:000090EC       GetComputerName
 0001:0004311C       GetConvFamilies
 0001:00041AA8       GetConvFamilyInfo
 0001:00041B98       GetConvInfo
 0001:00041BE4       GetConvInfo
 0001:00041B20       GetConvInfo
 0001:00043028       GetConvTypes
 0001:0000FCD4       GetCount
 0001:000090E4       GetCPInfo
 0001:0000D7F0       GetCurrentDir
 0001:000008B4       GetCurrentDirectory
 0001:0000097C       GetCurrentThreadId
 0001:000090F4       GetCurrentThreadId
 0001:0000FD00       GetDate
 0001:000090FC       GetDateFormat
 0001:00010A30       GetDateOrder
 0001:00009314       GetDCOrgEx
 0001:0002B708       GetDesigner
 0001:00009104       GetDiskFreeSpaceA
 0002:000003B4       GetDiskFreeSpaceEx
 0001:0003CA40       GetDispatchPropValue
 0001:0003CAE0       GetDispatchPropValue
 0001:000048F8       GetDynaMethod
 0001:0002235C       GetEnumName
 0001:00022450       GetEnumNameValue
 0001:00022894       GetEnumProp
 0001:00021978       GetEnumProp
 0001:0002249C       GetEnumValue
 0001:00015278       GetEnvironmentVariable
 0001:0000910C       GetEnvironmentVariable
 0001:0001159C       GetEraNamesAndYearOffsets
 0001:00010AC4       GetEraYearOffset
 0001:00025340       GetErrorInfo
 0001:00012304       GetExceptionClass
 0001:00040228       GetExceptionMask
 0001:000124E8       GetExceptionObject
 0001:00009114       GetExitCodeThread
 0001:00029080       GetFieldClassTable
 0001:0000911C       GetFileAttributes
 0001:00000814       GetFileSize
 0001:00009124       GetFileTime
 0001:00000804       GetFileType
 0001:0002F128       GetFixupInstanceNames
 0001:0002EEC0       GetFixupReferenceNames
 0001:00021B3C       GetFloatProp
 0001:0002305C       GetFloatProp
 0001:000130AC       GetFormatSettings
 0001:0000912C       GetFullPathName
 0001:00001D3C       GetHeapStatus
 0001:000528DC       GetHelpSystem
 0001:000535C0       gethostbyaddr
 0001:000535C8       gethostbyname
 0001:000535D8       gethostname
 0001:0003C5FC       GetIDsOfNames
 0001:00021C20       GetInt64Prop
 0001:00023478       GetInt64Prop
 0001:00023524       GetInterfaceProp
 0001:000234DC       GetInterfaceProp
 0001:00004554       GetKeyboardType
 0001:000008BC       GetLastError
 0001:00009134       GetLastError
 0001:00011360       GetLocaleChar
 0001:00014EB0       GetLocaleDataA
 0001:00014E78       GetLocaleDataW
 0001:000008C4       GetLocaleInfo
 0001:00009144       GetLocaleInfo
 0001:0000914C       GetLocaleInfoA
 0001:00009154       GetLocaleInfoW
 0001:00011314       GetLocaleStr
 0001:0000913C       GetLocalTime
 0001:00022D04       GetLongStrProp
 0001:00008254       GetMemory
 0001:00002054       GetMemoryManager
 0001:0000939C       GetMessage
 0001:00023400       GetMethodProp
 0001:00021BD8       GetMethodProp
 0001:0000915C       GetModuleFileName
 0001:000008CC       GetModuleFileName
 0001:00009164       GetModuleHandle
 0001:000008D4       GetModuleHandle
 0001:000139DC       GetModuleName
 0002:00003E58       GetMonitorInfo
 0002:00003E5C       GetMonitorInfoA
 0002:00003E60       GetMonitorInfoW
 0001:000113C4       GetMonthDayNames
 0001:00057F3C       GetObjectContext
 0002:00000CC0       GetObjectContextProc
 0001:00021A10       GetObjectProp
 0001:00022B5C       GetObjectProp
 0001:00022BCC       GetObjectPropClass
 0001:00021A58       GetObjectPropClass
 0001:00022BD4       GetObjectPropClass
 0001:00021938       GetOrdProp
 0001:000227C4       GetOrdProp
 0001:0000916C       GetOverlappedResult
 0001:000140D4       GetPackageDescription
 0001:00013F84       GetPackageInfo
 0001:00002474       GetParamStr
 0001:00053550       getpeername
 0001:000401EC       GetPrecisionMode
 0001:00009174       GetPrivateProfileString
 0001:0000917C       GetProcAddress
 0001:000008DC       GetProcAddress
 0001:00009184       GetProfileInt
 0001:00021844       GetPropInfo
 0001:00022500       GetPropInfo
 0001:00022570       GetPropInfo
 0001:00021824       GetPropInfo
 0001:000225A8       GetPropInfos
 0001:000226A4       GetPropList
 0001:00022748       GetPropList
 0001:0002277C       GetPropList
 0001:00021C78       GetPropValue
 0001:0003B9C8       GetRegStringValue
 0001:000401B0       GetRoundMode
 0001:000093A4       GetScrollInfo
 0001:000093AC       GetScrollPos
 0001:000093B4       GetScrollRange
 0001:000535D0       getservbyname
 0001:000219C0       GetSetProp
 0001:00022908       GetSetProp
 0001:0000918C       GetShortPathName
 0001:00022BFC       GetShortStrProp
 0001:00022C94       GetShortStrPropAsLongStr
 0001:00053558       getsockname
 0001:00053560       getsockopt
 0001:00000B8C       GetSpace
 0001:00000BF0       GetSpaceAt
 0001:000008E4       GetStartupInfo
 0001:00009194       GetStdHandle
 0001:0000081C       GetStdHandle
 0001:0000919C       GetStringTypeEx
 0001:00022E34       GetStrProp
 0001:00021A70       GetStrProp
 0001:000093BC       GetSystemMetrics
 0002:00003E48       GetSystemMetrics
 0001:0000080C       GetSystemTime
 0001:000008EC       GetThreadLocale
 0001:000091A4       GetThreadLocale
 0001:000091AC       GetThreadPriority
 0001:000091B4       GetTickCount
 0001:0000FD38       GetTime
 0001:0000893C       GetTlsSize
 0001:00022350       GetTypeData
 0001:0002C0DC       GetUltimateOwner
 0001:0002C0F4       GetUltimateOwner
 0001:0002C0C4       GetUltimateOwner
 0001:0000CFB8       GetUniversalName
 0001:0001F0F8       GetVarArray
 0001:0001EF60       GetVarDataArrayInfo
 0001:00006D5C       GetVariantManager
 0001:00023380       GetVariantProp
 0001:00021B90       GetVariantProp
 0001:000091BC       GetVersionEx
 0001:00022EA0       GetWideStrProp
 0001:00021AB8       GetWideStrProp
 0001:00022D84       GetWideStrPropAsLongStr
 0001:000093C4       GetWindowLong
 0001:000093CC       GetWindowPlacement
 0001:000093D4       GetWindowRect
 0002:00003AC4       GLastConvFamily
 0002:00003AC6       GLastConvType
 0001:000091C4       GlobalAlloc
 0001:0000947C       GlobalAllocPtr
 0002:00003A64       GlobalFixupList
 0001:0002EC94       GlobalFixupReferences
 0001:000091CC       GlobalFree
 0001:000094A8       GlobalFreePtr
 0001:000091DC       GlobalHandle
 0001:000091D4       GlobalLock
 0002:00003A4C       GlobalNameSpace
 0001:000091E4       GlobalReAlloc
 0001:0000948C       GlobalReAllocPtr
 0001:000091EC       GlobalUnlock
 0002:00003988       GOldVariantManager
 0001:0003DAE8       GradToCycle
 0001:0003DAB8       GradToDeg
 0001:0003D9A8       GradToRad
 0001:0002937C       GroupDescendentsWith
 0001:0000B3A8       GUIDToString
 0001:0003B864       GUIDToString
 0002:00000880       GUID_NULL
 0002:00000890       GUID_OLE_COLOR
 0002:000038DC       GVariantManager
 0001:0001765C       HandleConversionException
 0001:00030248       HandleException
 0001:000399BC       HandleSafeCallException
 0002:00000018       HeapAllocFlags
 0002:000035CC       heapErrorCode
 0002:000035D0       heapLock
 0001:00053510       HelpIntfs
 0002:00003C14       HelpManager
 0002:000003B0       HexDisplayPrefix
 0001:00033EF0       HexToBin
 0001:00009470       HiByte
 0002:00003720       HInstance
 0001:0000946C       HiWord
 0001:000439E8       HourOf
 0001:000440FC       HourOfTheDay
 0001:00043F68       HourOfTheMonth
 0001:00044048       HourOfTheWeek
 0001:00043E44       HourOfTheYear
 0001:00044454       HoursBetween
 0001:000445F0       HourSpan
 0002:00003030       HPrevInst
 0001:00053568       htons
 0001:0003DEF0       Hypot
 0001:00029810       IdentToInt
 0001:0003ED1C       IfThen
 0001:0003ED4C       IfThen
 0001:0004DA24       IfThen
 0001:0003ED10       IfThen
 0002:000013B0       IID_ADOCommandConstruction
 0002:000013A0       IID_ADOConnectionConstruction
 0002:00001390       IID_ADOConnectionConstruction15
 0002:000013C0       IID_ADORecordsetConstruction
 0002:00001290       IID_Command15
 0002:000012A0       IID_Connection15
 0002:00001350       IID_ConnectionEventsVt
 0002:00000E90       IID_ContextInfo
 0002:00001270       IID_Error
 0002:00001280       IID_Errors
 0002:00001310       IID_Field
 0002:000013D0       IID_Field15
 0002:00001300       IID_Fields
 0002:000012F0       IID_Fields15
 0002:0000176C       IID_IAccessor
 0002:00001A5C       IID_IAlterIndex
 0002:00001A4C       IID_IAlterTable
 0002:00001440       IID_ICatalogCollection
 0002:00001420       IID_ICatalogObject
 0002:0000187C       IID_IColumnsInfo
 0002:0000186C       IID_IColumnsRowset
 0002:00001010       IID_IComActivityEvents
 0002:00001400       IID_ICOMAdminCatalog
 0002:00000F70       IID_IComAppEvents
 0002:00001050       IID_IComCRMEvents
 0002:00001040       IID_IComExceptionEvents
 0002:00001020       IID_IComIdentityEvents
 0002:00000F80       IID_IComInstanceEvents
 0002:0000183C       IID_ICommand
 0002:00001A6C       IID_ICommandPersist
 0002:0000181C       IID_ICommandPrepare
 0002:0000182C       IID_ICommandProperties
 0002:0000185C       IID_ICommandText
 0002:0000184C       IID_ICommandWithParameters
 0002:00000FA0       IID_IComMethodEvents
 0002:00001000       IID_IComObjectConstructionEvents
 0002:00000FB0       IID_IComObjectEvents
 0002:00000FE0       IID_IComObjectPoolEvents
 0002:00000FF0       IID_IComObjectPoolEvents2
 0002:00001030       IID_IComQCEvents
 0002:00000FC0       IID_IComResourceEvents
 0002:00000FD0       IID_IComSecurityEvents
 0002:00000F50       IID_IComThreadEvents
 0002:00000F90       IID_IComTransactionEvents
 0002:00000F60       IID_IComUserEvent
 0002:00000D90       IID_IContextState
 0002:0000180C       IID_IConvertType
 0002:00000EA0       IID_ICreateWithTipTransactionEx
 0002:00000EB0       IID_ICreateWithTransactionEx
 0002:00000DF0       IID_ICrmCompensator
 0002:00000E00       IID_ICrmCompensatorVariants
 0002:00000E20       IID_ICrmFormatLogRecords
 0002:00000E10       IID_ICrmLogControl
 0002:00001090       IID_ICrmMonitor
 0002:000010B0       IID_ICrmMonitorClerks
 0002:00001070       IID_ICrmMonitorLogRecords
 0002:00000BF4       IID_IDataBroker
 0002:00001AEC       IID_IDataInitialize
 0002:000013E0       IID_IDataspace
 0002:0000199C       IID_IDBAsynchStatus
 0002:0000188C       IID_IDBCreateCommand
 0002:0000189C       IID_IDBCreateSession
 0002:000018EC       IID_IDBDataSourceAdmin
 0002:000018DC       IID_IDBInfo
 0002:000018CC       IID_IDBInitialize
 0002:00001ADC       IID_IDBPromptInitialize
 0002:000018BC       IID_IDBProperties
 0002:00000970       IID_IDebug
 0002:00000980       IID_IDebugStream
 0002:00001120       IID_IDispenserDriver
 0002:00001100       IID_IDispenserManager
 0002:00001110       IID_IDispenserManagerShutdownGuarantee
 0002:00000940       IID_IEnumCallback
 0002:00000920       IID_IEnumGeneric
 0002:00000930       IID_IEnumHolder
 0002:0000193C       IID_IErrorLookup
 0002:00001180       IID_IEventServer
 0002:00001160       IID_IGetAppData
 0002:0000195C       IID_IGetDataSource
 0002:00000D70       IID_IGetSecurityCallContext
 0002:00001130       IID_IHolder
 0002:0000190C       IID_IIndexDefinition
 0002:00000900       IID_IInternalMoniker
 0002:000010C0       IID_ILBEvents
 0002:00001A2C       IID_IMDFind
 0002:00001A3C       IID_IMDRangeRowset
 0002:000010E0       IID_IMessageMover
 0002:00000EF0       IID_IMtsEventInfo
 0002:00000EE0       IID_IMtsEvents
 0002:00000F30       IID_IMtsGrp
 0002:00000F10       IID_IMTSLocator
 0002:00000E50       IID_IMTxAS
 0002:000017FC       IID_IMultipleResults
 0002:00001ABC       IID_IObjectAccessControl
 0002:00000DB0       IID_IObjectConstruct
 0002:00000DC0       IID_IObjectConstructString
 0002:00000CD0       IID_IObjectContext
 0002:00000DA0       IID_IObjectContextInfo
 0002:00000DD0       IID_IObjectContextTip
 0002:00000950       IID_IOleManager
 0002:00000960       IID_IOlePresObj
 0002:0000192C       IID_IOpenRowset
 0002:00001A9C       IID_IParentRowset
 0002:00000DE0       IID_IPlaybackControl
 0002:00001190       IID_IProcessTerminateNotify
 0002:00000BD4       IID_IProvider
 0002:000008E0       IID_IProxyManager
 0002:000008F0       IID_IPSFactory
 0002:00001150       IID_IReceiveAppData
 0002:000019BC       IID_IRowPosition
 0002:000019CC       IID_IRowPositionChange
 0002:0000177C       IID_IRowset
 0002:000017CC       IID_IRowsetChange
 0002:00001A7C       IID_IRowsetChapterMember
 0002:000019AC       IID_IRowsetFind
 0002:000017EC       IID_IRowsetIndex
 0002:0000178C       IID_IRowsetInfo
 0002:0000179C       IID_IRowsetLocate
 0002:00001A8C       IID_IRowsetRefresh
 0002:000017AC       IID_IRowsetResynch
 0002:000017BC       IID_IRowsetScroll
 0002:000017DC       IID_IRowsetUpdate
 0002:00001A1C       IID_IRowsetView
 0002:000008A0       IID_IRpcChannel
 0002:000008D0       IID_IRpcProxy
 0002:000008B0       IID_IRpcStub
 0002:00000D50       IID_ISecurityCallContext
 0002:00000D30       IID_ISecurityCallersColl
 0002:00000CF0       IID_ISecurityCertificateColl
 0002:00000D10       IID_ISecurityIdentityColl
 0002:00001ACC       IID_ISecurityInfo
 0002:000018FC       IID_ISessionProperties
 0002:000018AC       IID_ISourcesRowset
 0002:0000194C       IID_ISQLErrorInfo
 0002:00000BE4       IID_IStrings
 0002:000008C0       IID_IStubManager
 0002:0000191C       IID_ITableDefinition
 0002:0000172C       IID_ITransaction
 0002:00000ED0       IID_ITransaction
 0002:0000174C       IID_ITransactionDispenser
 0002:0000197C       IID_ITransactionJoin
 0002:0000196C       IID_ITransactionLocal
 0002:0000198C       IID_ITransactionObject
 0002:0000173C       IID_ITransactionOptions
 0002:0000175C       IID_ITransactionOutcomeEvents
 0002:00001AAC       IID_ITrusteeGroupAdmin
 0002:000019EC       IID_IViewChapter
 0002:00001A0C       IID_IViewFilter
 0002:000019DC       IID_IViewRowset
 0002:000019FC       IID_IViewSort
 0002:0000169C       IID_IXMLAttribute
 0002:0000165C       IID_IXMLDocument
 0002:0000167C       IID_IXMLDocument2
 0002:0000151C       IID_IXMLDOMAttribute
 0002:0000156C       IID_IXMLDOMCDATASection
 0002:0000153C       IID_IXMLDOMCharacterData
 0002:0000155C       IID_IXMLDOMComment
 0002:000014EC       IID_IXMLDOMDocument
 0002:0000152C       IID_IXMLDOMDocumentFragment
 0002:000014FC       IID_IXMLDOMDocumentType
 0002:0000150C       IID_IXMLDOMElement
 0002:000015BC       IID_IXMLDOMEntity
 0002:0000158C       IID_IXMLDOMEntityReference
 0002:000014AC       IID_IXMLDOMImplementation
 0002:000014DC       IID_IXMLDOMNamedNodeMap
 0002:000014BC       IID_IXMLDOMNode
 0002:000014CC       IID_IXMLDOMNodeList
 0002:000015AC       IID_IXMLDOMNotation
 0002:0000159C       IID_IXMLDOMParseError
 0002:0000157C       IID_IXMLDOMProcessingInstruction
 0002:0000154C       IID_IXMLDOMText
 0002:0000162C       IID_IXMLDSOControl
 0002:0000166C       IID_IXMLElement
 0002:0000168C       IID_IXMLElement2
 0002:0000164C       IID_IXMLElementCollection
 0002:000016AC       IID_IXMLError
 0002:0000160C       IID_IXMLHttpRequest
 0002:000015CC       IID_IXTLRuntime
 0002:00000E70       IID_ObjectContext
 0002:00000E40       IID_ObjectControl
 0002:00001330       IID_Parameters
 0002:00001250       IID_Properties
 0002:00001260       IID_Property_
 0002:000012C0       IID_Recordset15
 0002:000012D0       IID_Recordset20
 0002:00001370       IID_RecordsetEventsVt
 0002:00000E80       IID_SecurityProperty
 0002:00001240       IID__ADO
 0002:00001220       IID__Collection
 0002:00001340       IID__Command
 0002:000012B0       IID__Connection
 0002:00001230       IID__DynaCollection
 0002:00001320       IID__Parameter
 0002:000012E0       IID__Recordset
 0001:0005B1A8       ImageHlp
 0001:0005B1E0       Imm
 0002:00000404       IMSecsPerDay
 0001:00017AE4       InBounds
 0001:00017748       InBounds
 0001:0000FAFC       IncAMonth
 0001:000446F8       IncDay
 0001:00044714       IncHour
 0001:00012AD4       IncludeTrailingBackslash
 0001:00012AE8       IncludeTrailingPathDelimiter
 0001:00044798       IncMilliSecond
 0001:00044740       IncMinute
 0001:0000FAA0       IncMonth
 0001:00017B14       Increment
 0001:00017778       Increment
 0001:0004476C       IncSecond
 0001:000446D4       IncWeek
 0001:000446B0       IncYear
 0001:00053570       inet_addr
 0001:00053578       inet_ntoa
 0001:00047CA4       IniFiles
 0001:00001074       InitAllocator
 0001:0005CCEC       InitAnApi
 0002:00003E70       InitApis
 0001:0003CCB0       InitComObj
 0001:00029AB8       InitComponent
 0001:00029C24       InitComponentRes
 0002:0000363C       InitContext
 0001:000144FC       InitDriveSpacePtr
 0001:000125C4       InitExceptions
 0001:0005ACB4       InitFlatSB
 0001:000009C8       InitializeCriticalSection
 0001:000091F4       InitializeCriticalSection
 0002:000035C8       initialized
 0001:0005AC70       InitializeFlatSB
 0001:00008A40       InitializeModule
 0001:00013DAC       InitializePackage
 0001:00015FCC       InitializeVarUtils
 0001:00029B60       InitInheritedComponent
 0001:00012EC0       InitLeadBytes
 0001:0005B2A4       InitMapi
 0001:00048090       InitMaskStates
 0001:0005D3C8       InitMultiMonStubs
 0001:000126B4       InitPlatformId
 0002:00003048       InitProc
 0001:00008988       InitProcessTLS
 0001:00012F38       InitSysLocale
 0001:00008944       InitThreadTLS
 0001:00005290       InitUnits
 0001:00006D3C       InitVariantManager
 0001:000021EC       InOutError
 0002:00003054       Input
 0001:0003EE1C       InRange
 0001:0003EE0C       InRange
 0001:0003EE54       InRange
 0001:00001480       InsertFree
 0002:00003A88       InstBlockList
 0002:00003A8C       InstFreeList
 0001:0001D584       Int64Compare
 0001:0001CB80       Int64Op
 0001:0001D570       IntCompare
 0002:00003A58       IntConstList
 0001:0003FA44       InterestPayment
 0001:0003FAF8       InterestRate
 0001:0003BF24       InterfaceConnect
 0001:0003BFD0       InterfaceDisconnect
 0001:000090C4       InterlockedDecrement
 0001:00014564       InterlockedDecrement
 0001:00000974       InterlockedDecrement
 0001:00014570       InterlockedExchange
 0001:00014578       InterlockedExchangeAdd
 0001:0000096C       InterlockedIncrement
 0001:000090CC       InterlockedIncrement
 0001:00014558       InterlockedIncrement
 0001:0003564C       InternalBinaryToText
 0001:000028C4       InternalClose
 0001:00002B08       InternalFlush
 0001:000012DC       InternalFreeMem
 0001:0000D65C       InternalGetDiskSpace
 0001:0003F6AC       InternalRateOfReturn
 0001:00029950       InternalReadComponentRes
 0001:0003576C       InternalTextToBinary
 0001:00005D10       InternalUniqueString
 0001:00013BBC       InternalUnitCheck
 0001:00008E04       IntersectRect
 0001:000093DC       IntersectRect
 0001:0001CA74       IntOp
 0001:0003DB9C       IntPower
 0001:0000C038       IntToHex
 0001:0000C074       IntToHex
 0001:00029850       IntToIdent
 0001:0000BFD4       IntToStr
 0001:0000C004       IntToStr
 0001:000458AC       InvalidDateDayError
 0001:0004592C       InvalidDateMonthWeekError
 0001:00045660       InvalidDateTimeError
 0001:00045820       InvalidDateWeekError
 0001:000459C4       InvalidDayOfWeekInMonthError
 0001:00047DA4       InvalidMask
 0001:00028488       InvalidPoint
 0001:0002849C       InvalidPoint
 0001:0002847C       InvalidPoint
 0002:00003850       InvalidPointer
 0001:000047A8       InvokeImplGetter
 0001:00053580       ioctlsocket
 0001:000023E8       IOResult
 0001:0005B218       Isapi
 0001:0005B250       Isapi2
 0001:00057E54       IsComPlusPlatform
 0002:00003050       IsConsole
 0001:00033084       IsDefault
 0001:00032E08       IsDefault
 0001:00032D70       IsDefaultValue
 0001:00033314       IsDefaultValue
 0001:00032CCC       IsDefaultValue
 0001:00032B9C       IsDefaultValue
 0001:00033640       IsDefaultValue
 0001:00033508       IsDefaultValue
 0001:00012A90       IsDelimiter
 0001:0001F570       IsDynArrayRectangular
 0001:0000B3E0       IsEqualGUID
 0001:00025288       IsEqualIID
 0001:000253A4       IsHashValCompatible
 0001:000093E4       IsIconic
 0001:0003E6B4       IsInfinite
 0001:00043610       IsInLeapYear
 0001:0000F678       IsLeapYear
 0002:0000303C       IsLibrary
 0001:0005204C       IsLiteralChar
 0001:0000208C       IsMemoryManagerSet
 0002:00003051       IsMultiThread
 0001:0003E670       IsNan
 0001:00012A5C       IsPathDelimiter
 0001:00043628       IsPM
 0001:00021800       IsPublishedProp
 0001:000217DC       IsPublishedProp
 0001:00008ED4       IsRectEmpty
 0001:00048858       IsRelative
 0001:0004391C       IsSameDay
 0001:00022794       IsStoredProp
 0001:0002191C       IsStoredProp
 0001:000438FC       IsToday
 0001:0002992C       IsUniqueGlobalComponentName
 0002:00003A50       IsUniqueGlobalComponentNameProc
 0001:00013A0C       IsUnitPresent
 0001:00043644       IsValidDate
 0001:0004374C       IsValidDateDay
 0001:00043708       IsValidDateMonthWeek
 0001:000436C4       IsValidDateTime
 0001:0004377C       IsValidDateWeek
 0001:0000BF70       IsValidIdent
 0001:000033AC       IsValidMultibyteChar
 0001:00043684       IsValidTime
 0001:00006D84       IsVariantManagerSet
 0001:00012F20       IsWesternGroup
 0001:0003EC68       IsZero
 0001:0003ECE0       IsZero
 0001:0003ECA8       IsZero
 0002:00000020       JITEnable
 0001:000453B8       JulianDateToDateTime
 0001:0004B930       KelvinToCelsius
 0001:000151D4       Languages
 0001:0000CAB8       LastDelimiter
 0001:00012E4C       LCIDToCodePage
 0001:0003DF6C       Ldexp
 0002:00000390       LeadBytes
 0001:000091FC       LeaveCriticalSection
 0001:000009D8       LeaveCriticalSection
 0001:0004DA8C       LeftStr
 0001:00025390       LHashValOfName
 0001:00025318       LHashValOfNameSys
 0002:000011B0       LIBID_ADODB
 0002:000013F0       LIBID_COMAdmin
 0002:00000CE0       LIBID_COMSVCSLib
 0002:0000149C       LIBID_MSXML
 0002:00000BC4       LIBID_StdVCL
 0002:0000002C       LibModuleList
 0001:0002A018       LineStart
 0001:00053588       listen
 0002:00003806       ListSeparator
 0002:0000083C       LNextVarType
 0001:0003DB78       LnXP1
 0001:0003C080       LoadComExProcs
 0001:00009204       LoadLibrary
 0001:0000920C       LoadLibraryEx
 0001:000008F4       LoadLibraryEx
 0001:00057E84       LoadMtsProcs
 0001:00013EA0       LoadPackage
 0001:00009214       LoadResource
 0001:00007BEC       LoadResourceModule
 0001:00008710       LoadResString
 0001:0000C498       LoadStr
 0001:000008FC       LoadString
 0001:000093EC       LoadString
 0001:00008900       LocalAlloc
 0001:000009A8       LocalAlloc
 0001:0000921C       LocalFileTimeToFileTime
 0001:00008908       LocalFree
 0001:000009B0       LocalFree
 0001:00011388       LocalGetLocaleStr
 0001:00009224       LockResource
 0001:0003DFE0       Log10
 0001:0003DFF0       Log2
 0001:0003E000       LogN
 0002:0000146C       LogOff
 0002:00001468       LogOn
 0002:00003748       LongDateFormat
 0002:000037DC       LongDayNames
 0002:00003790       LongMonthNames
 0002:0000375C       LongTimeFormat
 0001:0000B528       LowerCase
 0001:000092E4       lstrcpy
 0001:00000904       lstrcpyn
 0002:00003A34       LVarTypes
 0002:00003A38       LVarTypeSync
 0001:0005B288       LZExpand
 0002:00003034       MainInstance
 0002:00003038       MainThreadID
 0001:00000A38       MakeEmpty
 0001:00005574       MakeErrorMessage
 0001:0003848C       MakeObjectInstance
 0001:00025380       MakeResult
 0001:00012284       MapException
 0001:0005B8F8       Mapi
 0001:0005B75C       MapiAddress
 0002:00001498       MAPIChecked
 0001:0005B6A4       MapiDeleteMail
 0001:0005B7D8       MapiDetails
 0002:00001460       MAPIDLL
 0001:0005B55C       MapiFindNext
 0001:0005B70C       MapiFreeBuffer
 0001:0005B428       MapiLogOff
 0001:0005B3C0       MapiLogOn
 0002:00001464       MAPIModule
 0001:0005B5CC       MapiReadMail
 0001:0005B83C       MapiResolveName
 0001:0005B638       MapiSaveMail
 0001:0005B4F0       MapiSendDocuments
 0001:0005B488       MapiSendMail
 0001:000050A8       MapToRunError
 0001:0000311C       Mark
 0001:00051B4C       MaskDoFormatText
 0002:00000C88       MaskFieldSeparator
 0001:0005195C       MaskGetCharType
 0001:00051AB0       MaskGetCurrentDirectives
 0001:00051E58       MaskGetFldSeparator
 0001:00051DEC       MaskGetMaskBlank
 0001:00051D68       MaskGetMaskSave
 0001:00051B2C       MaskIntlLiteralToChar
 0002:00000C8C       MaskNoSave
 0001:00051F30       MaskOffsetToOffset
 0001:00051EA4       MaskOffsetToString
 0001:00051F84       MaskOffsetToWideOffset
 0001:00048530       Masks
 0001:00052448       MaskUtils
 0001:000481B0       Matches
 0001:000484A4       MatchesMask
 0001:00048354       MatchesMaskStates
 0001:00040294       Math
 0001:0003E934       Max
 0001:0003E8C4       Max
 0001:0003E968       Max
 0001:0003E90C       Max
 0001:0003E8CC       Max
 0002:00000348       MaxCurrency
 0002:00000388       MaxDateTime
 0001:0003E8A8       MaxIntValue
 0001:0003E86C       MaxValue
 0002:00001B0C       MDGUID_MDX
 0002:00001B2C       MDSCHEMA_CUBES
 0002:00001B3C       MDSCHEMA_DIMENSIONS
 0002:00001B4C       MDSCHEMA_HIERARCHIES
 0002:00001B5C       MDSCHEMA_LEVELS
 0002:00001B6C       MDSCHEMA_MEASURES
 0002:00001B8C       MDSCHEMA_MEMBERS
 0002:00001B7C       MDSCHEMA_PROPERTIES
 0001:0003E6F8       Mean
 0001:0003EF34       MeanAndStdDev
 0002:00000034       MemoryManager
 0001:00000A88       MergeBlockAfter
 0001:00001554       MergeCommit
 0001:000093F4       MessageBeep
 0001:00000884       MessageBox
 0001:000093FC       MessageBox
 0001:00020E0C       Messages
 0001:0004DACC       MidStr
 0001:00043A60       MilliSecondOf
 0001:0004417C       MilliSecondOfTheDay
 0001:00044208       MilliSecondOfTheHour
 0001:0004425C       MilliSecondOfTheMinute
 0001:00043FF0       MilliSecondOfTheMonth
 0001:00044290       MilliSecondOfTheSecond
 0001:000440D0       MilliSecondOfTheWeek
 0001:00043ECC       MilliSecondOfTheYear
 0001:000444E4       MilliSecondsBetween
 0001:00044680       MilliSecondSpan
 0001:0003E824       Min
 0001:0003E7F0       Min
 0001:0002B314       Min
 0001:0003E7C8       Min
 0001:0003E788       Min
 0001:0003E780       Min
 0002:00000340       MinCurrency
 0002:00000380       MinDateTime
 0002:000002A8       MinInfStr
 0001:0003E764       MinIntValue
 0001:00043A10       MinuteOf
 0001:00044110       MinuteOfTheDay
 0001:000441C4       MinuteOfTheHour
 0001:00043F98       MinuteOfTheMonth
 0001:00044078       MinuteOfTheWeek
 0001:00043E74       MinuteOfTheYear
 0001:00044484       MinutesBetween
 0001:00044620       MinuteSpan
 0001:0003E728       MinValue
 0001:0000241C       MkDir
 0001:00002408       MkDir
 0002:00003E78       MMAvailable
 0001:0005B930       MMSystem
 0001:00045560       ModifiedJulianDateToDateTime
 0002:000002F0       Module
 0002:00003716       ModuleIsCpp
 0002:00003714       ModuleIsLib
 0002:00003715       ModuleIsPackage
 0001:00037E3C       ModuleUnload
 0002:00000030       ModuleUnloadList
 0001:0003EFB8       MomentSkewKurtosis
 0002:00003E54       MonitorFromPoint
 0002:00003E50       MonitorFromRect
 0002:00003E4C       MonitorFromWindow
 0002:00000350       MonthDays
 0001:0004398C       MonthOf
 0001:00043DD0       MonthOfTheYear
 0001:000443F4       MonthsBetween
 0001:00044570       MonthSpan
 0001:00002434       Move
 0001:0000922C       MoveFile
 0001:00000824       MoveFileA
 0001:00049A34       MoveValue
 0001:0000F534       MSecsToTimeStamp
 0001:00009404       MsgWaitForMultipleObjects
 0001:0005CCCC       msxml
 0002:00000CCC       MtsProcsLoaded
 0001:000581C4       Mtx
 0002:00003BAC       muCentigrams
 0002:00003BB2       muDecagrams
 0002:00003BAE       muDecigrams
 0002:00003BBA       muDrams
 0002:00003BBC       muGrains
 0002:00003BB0       muGrams
 0002:00003BB4       muHectograms
 0002:00003BB6       muKilograms
 0002:00003BBE       muLongTons
 0001:00000914       MultiByteToWideChar
 0001:00009234       MultiByteToWideChar
 0001:0005D464       MultiMon
 0002:00003BB8       muMetricTons
 0002:00003BA8       muMicrograms
 0002:00003BAA       muMilligrams
 0002:00003BA6       muNanograms
 0002:00003BC2       muOunces
 0002:00003BC4       muPounds
 0002:00003BC6       muStones
 0002:00003BC0       muTons
 0001:0002EE3C       NameInStrings
 0001:0003612C       NameLengthError
 0002:0000029C       NanStr
 0001:0005D4A4       Nb30
 0002:00003AA8       NeedToUninitialize
 0001:0001DD98       NegateAny
 0001:0001DCE8       NegateAsDouble
 0001:0001DD40       NegateByte
 0001:0001DDAC       NegateCustom
 0001:0001DD64       NegateLongWord
 0001:0001DD14       NegateVariant
 0001:0001DD00       NegateViaOS
 0001:0001DD54       NegateWord
 0002:0000373D       NegCurrFormat
 0001:0003F838       NetPresentValue
 0001:000015E0       NewCommit
 0001:0000160C       NewCommitAt
 0001:000348F0       NewLine
 0001:0000B46C       NewStr
 0001:0000D300       Next
 0001:00012A20       NextCharIndex
 0001:00022A1C       NextWord
 0002:00000A50       NilMethod
 0002:00000024       NoErrMsg
 0001:0003F164       Norm
 0001:0001E240       NotAny
 0001:0001E198       NotAsOrdinal
 0001:0001E0C8       NotAsString
 0001:0001E254       NotCustom
 0001:00004B9C       NotifyAnyExcept
 0001:0002B7E4       NotifyDesigner
 0001:00004B70       NotifyExcept
 0001:00004BD0       NotifyExceptFinally
 0001:00029A2C       NotifyGlobalLoading
 0001:00007F50       NotifyModuleUnload
 0001:00004B4C       NotifyNonDelphiException
 0001:00004B88       NotifyOnExcept
 0001:00004B30       NotifyReRaise
 0001:00004BF8       NotifyTerminate
 0001:00004C14       NotifyUnhandled
 0001:0001E214       NotVariant
 0001:0001E200       NotViaOS
 0001:0000FA50       Now
 0001:0005D514       Ns30Fix
 0001:0005D54C       Ns35Fix
 0001:0005D584       Ns36Fix
 0001:0005D4DC       Nsapi
 0001:000451DC       NthDayOfWeek
 0001:00053590       ntohs
 0002:000002E8       Null
 0001:00020B4C       Null
 0002:000006D0       NullAsStringValue
 0001:0001D464       NullCompare
 0002:000006C4       NullEqualityRule
 0002:000006C8       NullMagnitudeRule
 0001:0001CD5C       NullOp
 0002:0000031C       NullStr
 0002:000006CC       NullStrictConvert
 0002:00000324       NullWideStr
 0001:0003FE74       NumberOfPeriods
 0001:0003303C       ObjectAncestorMatch
 0001:00035550       ObjectBinaryToText
 0001:00035880       ObjectBinaryToText
 0001:00036118       ObjectResourceToText
 0001:000360FC       ObjectResourceToText
 0001:00036028       ObjectTextToBinary
 0001:000360E4       ObjectTextToBinary
 0001:000361BC       ObjectTextToResource
 0001:00036318       ObjectTextToResource
 0001:0000940C       OffsetRect
 0001:00008EEC       OffsetRect
 0001:00051FF0       OffsetToMaskOffset
 0001:0003B7F0       OleCheck
 0001:0005F0E0       OleDB
 0001:0005F118       OleDlg
 0001:0003B7D4       OleError
 0001:00006CCC       OleStrToString
 0001:00006CD4       OleStrToStrVar
 0002:00003A9C       OleUninitializing
 0001:0001C30C       OleVarFromAny
 0001:0001C370       OleVarFromVarArrayProc
 0001:000035FC       OpenFile
 0001:0005F150       OpenGL
 0001:000027CC       OpenText
 0002:0000070C       OpTypeMap
 0002:0000384C       OutOfMemory
 0001:00011B20       OutOfMemoryError
 0002:00003220       Output
 0001:00032EFC       OwnedBy
 0001:00013958       PackageInfoTable
 0002:000006D4       PackVarCreation
 0001:0005220C       PadInputLiterals
 0001:00052074       PadSubField
 0001:00002560       ParamCount
 0001:000025C0       ParamStr
 0001:0004F618       ParseError
 0001:0004F4C0       ParseNumber
 0001:0002040C       ParseParam
 0001:0004F568       ParseWhiteSpace
 0001:0003FFA8       Payment
 0001:0003F8DC       PaymentParts
 0001:00009414       PeekMessage
 0001:0005F194       PenWin
 0001:00040068       PeriodPayment
 0002:000002A0       PlusInfStr
 0002:000002EC       PNull
 0001:00008DD8       Point
 0001:000283A4       Point
 0001:00028908       PointerInModule
 0001:000283CC       PointsEqual
 0001:000283E0       PointsEqual
 0001:0003E018       Poly
 0001:0003DCF0       PolyX
 0001:00048170       Pop
 0001:0003F188       PopnStdDev
 0001:0003F1AC       PopnVariance
 0001:0000941C       PostMessage
 0001:0003E050       Power
 0001:000400F4       PresentValue
 0002:00000AE0       Priorities
 0002:00003A68       ProcPosted
 0001:000252E8       ProgIDFromCLSID
 0001:0003B890       ProgIDToClassID
 0001:0002F1F0       PropertyNotFound
 0001:000217B0       PropertyNotFound
 0001:00021864       PropIsType
 0001:00021880       PropIsType
 0001:00030348       PropPathError
 0001:000253B8       PROPSETHDR_OSVER_KIND
 0001:000253C0       PROPSETHDR_OSVER_MAJOR
 0001:000253C4       PROPSETHDR_OSVER_MINOR
 0001:0002189C       PropType
 0001:00021904       PropType
 0001:0002F1E4       PropValueError
 0001:0005F1CC       PsAPI
 0002:00001FCC       PSGUID_QUERY
 0001:00008DE0       PtInRect
 0001:00008768       PUCS4Chars
 0001:00048148       Push
 0001:0000E758       PutExponent
 0001:0002A6C0       QuickSort
 0001:0000BB50       QuotedStr
 0001:0003DA2C       RadToCycle
 0001:0003D97C       RadToDeg
 0001:0003D9D4       RadToGrad
 0001:00012240       RaiseAssertException
 0001:000419E8       RaiseConversionError
 0001:00041A00       RaiseConversionError
 0001:00041A24       RaiseConversionRegError
 0001:0002DBB0       RaiseException
 0001:0003C6DC       RaiseException
 0001:0000082C       RaiseException
 0002:00003014       RaiseExceptionProc
 0001:00014224       RaiseLastOSError
 0001:000142C0       RaiseLastWin32Error
 0001:00002134       RaiseList
 0001:000409A4       RaiseListError
 0001:0003C5C8       RaiseNameException
 0001:0003F2E4       RaiseOverflowError
 0001:0003F1DC       RandG
 0001:0003EDE4       RandomFrom
 0001:0004DA04       RandomFrom
 0001:0003EDA4       RandomFrom
 0001:0003EDB8       RandomFrom
 0001:00002678       Randomize
 0001:0003ED7C       RandomRange
 0002:00000008       RandSeed
 0001:00021EE4       RangedValue
 0001:0004B980       RankineToCelsius
 0001:00014494       RCS
 0001:00029C4C       ReadComponentRes
 0001:00029CF4       ReadComponentResEx
 0001:00029D80       ReadComponentResFile
 0001:00031A18       ReadCustomVariant
 0001:0002F1CC       ReadError
 0001:0004882C       ReadError
 0001:0000923C       ReadFile
 0001:00000834       ReadFile
 0001:00002B68       ReadFileX
 0001:000032B4       ReadLine
 0002:0000147C       ReadMail
 0001:0001D5C0       RealCompare
 0001:0000827C       ReallocMemory
 0001:0001C99C       RealOp
 0001:0004B9E8       ReaumurToCelsius
 0001:00044EB4       RecodeDate
 0001:00044F24       RecodeDateTime
 0001:00044D88       RecodeDay
 0001:00044DC4       RecodeHour
 0001:00044E78       RecodeMilliSecond
 0001:00044E00       RecodeMinute
 0001:00044D4C       RecodeMonth
 0001:00044E3C       RecodeSecond
 0001:00044EEC       RecodeTime
 0001:00044D10       RecodeYear
 0001:0002F970       Recover
 0001:0002840C       Rect
 0001:00028434       Rect
 0001:00008DBC       Rect
 0001:00053598       recv
 0001:0002EF58       RedirectFixupReferences
 0002:000038D4       RefAnyProc
 0001:00008F84       RegCloseKey
 0001:0000091C       RegCloseKey
 0001:00008F8C       RegConnectRegistry
 0001:00008F94       RegCreateKeyEx
 0001:0004886C       RegDataToDataType
 0001:00008F9C       RegDeleteKey
 0001:00008FA4       RegDeleteValue
 0001:00008FAC       RegEnumKeyEx
 0001:00008FB4       RegEnumValue
 0002:00000B44       RegFlags
 0001:00008FBC       RegFlushKey
 0002:00003A5C       RegGroups
 0001:0003BE50       RegisterAsService
 0001:00009424       RegisterClass
 0001:0002916C       RegisterClass
 0001:00029210       RegisterClassAlias
 0001:000291DC       RegisterClasses
 0001:00029504       RegisterComponents
 0002:00000A30       RegisterComponentsProc
 0001:0003BD50       RegisterComServer
 0001:00042820       RegisterConversionFamily
 0001:0004270C       RegisterConversionType
 0001:0004264C       RegisterConversionType
 0001:00042758       RegisterConversionType
 0001:00029894       RegisterFindGlobalComponentProc
 0001:00029664       RegisterIntegerConsts
 0001:00007FAC       RegisterModule
 0001:0002954C       RegisterNoIcon
 0002:00000A34       RegisterNoIconProc
 0001:00029590       RegisterNonActiveX
 0002:00000A3C       RegisterNonActiveXProc
 0001:00052844       RegisterViewer
 0001:0004B478       Registry
 0001:00008FC4       RegLoadKey
 0001:00008FCC       RegOpenKey
 0001:00000924       RegOpenKeyEx
 0001:00008FD4       RegOpenKeyEx
 0001:00008FDC       RegQueryInfoKey
 0001:0000092C       RegQueryValueEx
 0001:00008FE4       RegQueryValueEx
 0001:00008FEC       RegReplaceKey
 0001:00008FF4       RegRestoreKey
 0001:00008FFC       RegSaveKey
 0001:00009004       RegSetValueEx
 0001:0005AA7C       RegStr
 0001:0000900C       RegUnLoadKey
 0001:000035CC       Release
 0001:00002130       ReleaseExceptionObject
 0001:00009244       ReleaseSemaphore
 0001:0003DDE4       RelSmall
 0002:00000040       reMap
 0002:00003620       remBytes
 0001:00000AF8       RemoveBlock
 0002:00000A18       RemoveDataModule
 0001:0000D830       RemoveDir
 0001:0000924C       RemoveDirectory
 0001:00000934       RemoveDirectory
 0001:0002EFF8       RemoveFixupReferences
 0001:0002F0A4       RemoveFixups
 0001:0002F4AC       RemoveGlobalFixup
 0001:00007EF0       RemoveModuleUnloadProc
 0001:00007EC8       RemoveModuleUnloadProc
 0001:00036408       RemoveThread
 0001:0000CA3C       RenameFile
 0001:0000FBDC       ReplaceDate
 0001:0000FB88       ReplaceTime
 0002:00003854       Reserved
 0001:00047DF4       Reset
 0001:00009254       ResetEvent
 0001:00001A94       ResizeInPlace
 0002:00001494       ResolveName
 0001:00025368       ResultCode
 0001:00025370       ResultFacility
 0001:0002537C       ResultSeverity
 0001:0000925C       ResumeThread
 0001:00011AC0       ReturnAddr
 0001:0002C440       ReturnAddr
 0001:0002A328       ReturnAddr
 0001:0004D940       ReverseString
 0001:0005F204       RichEdit
 0001:0004DAA8       RightStr
 0001:000026B4       RmDir
 0001:000026C8       RmDir
 0001:0003D8A0       RoundTo
 0002:0000361C       rover
 0001:000144E0       RPR
 0001:0005F574       rtl
 0001:00021194       RTLConsts
 0001:0000083C       RtlUnwind
 0002:00003018       RTLUnwindProc
 0002:000002B0       runErrMsg
 0001:00002158       RunErrorAt
 0001:00015CB8       SafeArrayAccessData
 0001:00015C98       SafeArrayCreate
 0001:00015CC8       SafeArrayGetElement
 0001:00015CA8       SafeArrayGetLBound
 0001:00015CB0       SafeArrayGetUBound
 0001:00015CD8       SafeArrayPtrOfIndex
 0001:00015CD0       SafeArrayPutElement
 0001:00015CA0       SafeArrayRedim
 0001:00015CC0       SafeArrayUnaccessData
 0001:0003C184       SafeCallError
 0002:00003020       SafeCallErrorProc
 0001:000151F4       SafeLoadLibrary
 0001:00057F7C       SafeRef
 0002:00000CC8       SafeRefProc
 0001:00045104       SameDate
 0001:0004509C       SameDateTime
 0001:00012C14       SameFileName
 0001:0000B608       SameText
 0001:00045198       SameTime
 0001:0003EC08       SameValue
 0001:0003EBA8       SameValue
 0001:0003EB44       SameValue
 0002:00003AA4       SaveInitProc
 0002:00001480       SaveMail
 0001:000108B4       ScanBlanks
 0001:000109F8       ScanChar
 0001:00010B74       ScanDate
 0001:000108D8       ScanNumber
 0001:00047F84       ScanSet
 0001:0001096C       ScanString
 0001:00010EB0       ScanTime
 0001:00010A7C       ScanToNumber
 0001:00057B80       ScktComp
 0001:0004DD4C       Score
 0001:0004DB78       SearchBuf
 0001:00001640       SearchSmallBlocks
 0001:0003E48C       Sec
 0001:0003DEC8       Secant
 0001:0003E504       SecH
 0001:00043A38       SecondOf
 0001:00044140       SecondOfTheDay
 0001:000441D8       SecondOfTheHour
 0001:00044248       SecondOfTheMinute
 0001:00043FC4       SecondOfTheMonth
 0001:000440A4       SecondOfTheWeek
 0001:00043EA0       SecondOfTheYear
 0001:000444B4       SecondsBetween
 0001:00044650       SecondSpan
 0001:000535A0       select
 0001:000535A8       send
 0002:00001474       SendDocuments
 0002:00001470       SendMail
 0001:0000942C       SendMessage
 0001:000026EC       Set8087CW
 0001:0001ED04       SetClearVarToEmptyParam
 0001:0002FAE0       SetCompName
 0001:0000D7FC       SetCurrentDir
 0001:00009264       SetCurrentDirectory
 0001:0000093C       SetCurrentDirectory
 0001:0003CC0C       SetDispatchPropValue
 0001:0003CB64       SetDispatchPropValue
 0001:00000844       SetEndOfFile
 0001:0000926C       SetEndOfFile
 0001:000228B8       SetEnumProp
 0001:0002199C       SetEnumProp
 0001:00025338       SetErrorInfo
 0001:00009274       SetErrorMode
 0001:0005481C       SetErrorProc
 0001:0000927C       SetEvent
 0001:000051E8       SetExceptionHandler
 0001:00040238       SetExceptionMask
 0001:00009284       SetFileAttributes
 0001:0000084C       SetFilePointer
 0001:0000928C       SetFilePointer
 0001:00009294       SetFileTime
 0001:00023174       SetFloatProp
 0001:00021B64       SetFloatProp
 0001:000021DC       SetInOutRes
 0001:00021C50       SetInt64Prop
 0001:000234A0       SetInt64Prop
 0001:000235A4       SetInterfaceProp
 0001:00023500       SetInterfaceProp
 0001:00030628       SetInterfaceReference
 0001:00030544       SetIntIdent
 0001:0000929C       SetLastError
 0001:0000829C       SetLineBreakStyle
 0001:00022D44       SetLongStrProp
 0001:00002070       SetMemoryManager
 0001:00023440       SetMethodProp
 0001:00021BFC       SetMethodProp
 0001:0003058C       SetObjectIdent
 0001:00021A34       SetObjectProp
 0001:00022B90       SetObjectProp
 0001:00021954       SetOrdProp
 0001:00022838       SetOrdProp
 0001:000401FC       SetPrecisionMode
 0001:00021F4C       SetPropValue
 0001:00002140       SetRaiseList
 0001:000401C0       SetRoundMode
 0001:00009434       SetScrollInfo
 0001:0000943C       SetScrollPos
 0001:00009444       SetScrollRange
 0001:000219EC       SetSetProp
 0001:00022B38       SetSetProp
 0001:00022C40       SetShortStrProp
 0001:00022CBC       SetShortStrPropAsLongStr
 0001:000535B0       setsockopt
 0001:00022E74       SetStrProp
 0001:00021A94       SetStrProp
 0001:000092A4       SetThreadPriority
 0001:00022934       SetToString
 0001:0001ECC8       SetVarAsError
 0001:00006D70       SetVariantManager
 0001:000233C0       SetVariantProp
 0001:00021BB4       SetVariantProp
 0001:000305CC       SetVariantReference
 0001:00021ADC       SetWideStrProp
 0001:00022F88       SetWideStrProp
 0001:00022DDC       SetWideStrPropAsLongStr
 0001:0000944C       SetWindowLong
 0002:000003D0       ShareMode
 0002:00000064       ShareTab
 0001:0005AA44       ShellAPI
 0001:0005F23C       SHFolder
 0001:0005AB24       ShlObj
 0002:00003744       ShortDateFormat
 0002:000037C0       ShortDayNames
 0002:00003760       ShortMonthNames
 0002:00003758       ShortTimeFormat
 0001:00011A08       ShowException
 0001:00009454       ShowScrollBar
 0001:0003E9FC       Sign
 0001:0003E9C8       Sign
 0001:0003E9B0       Sign
 0001:0003D8E8       SimpleRoundTo
 0001:0001CEA0       SimpleVarOp
 0001:0003DF28       SinCos
 0001:0003E178       Sinh
 0001:000092AC       SizeofResource
 0001:000311E0       SkipBinary
 0001:00031210       SkipCollection
 0001:000311B8       SkipList
 0001:00013DA4       Sleep
 0001:0003F590       SLNDepreciation
 0001:000283BC       SmallPoint
 0002:00003628       smallTab
 0001:000535B8       socket
 0001:000225FC       SortPropList
 0001:0004DD64       Soundex
 0001:0004E26C       SoundexCompare
 0001:0004DE90       SoundexInt
 0001:0004E2DC       SoundexProc
 0001:0004E1F8       SoundexSimilar
 0001:0004E044       SoundexWord
 0002:000035F0       spaceRoot
 0001:00044514       SpanOfNowAndThen
 0001:00029330       StartClassGroup
 0001:00043D18       StartOfADay
 0001:00043D58       StartOfADay
 0001:00043C84       StartOfAMonth
 0001:00043CD4       StartOfAWeek
 0001:00043C3C       StartOfAYear
 0001:00043BE8       StartOfTheDay
 0001:00043AEC       StartOfTheMonth
 0001:00043B74       StartOfTheWeek
 0001:00043A88       StartOfTheYear
 0001:000548F4       Startup
 0001:0004BB58       StdConvs
 0001:0003F268       StdDev
 0001:0004D4F8       StdVCL
 0001:00038464       StdWndProc
 0001:0000DB44       StrAlloc
 0001:0000DB58       StrBufSize
 0001:000127D0       StrByteType
 0001:0000D950       StrCat
 0001:000129BC       StrCharLength
 0001:0000D990       StrComp
 0001:0000D884       StrCopy
 0001:0000DB90       StrDispose
 0001:0000D8AC       StrECopy
 0001:0000D860       StrEnd
 0001:0000E02C       StrFmt
 0001:0000D9B4       StrIComp
 0001:0001D63C       StringCompare
 0001:0000B314       StringFromCLSID
 0001:000252D8       StringFromCLSID
 0001:0002DA34       StringListCompareStrings
 0001:00013424       StringReplace
 0001:0000B32C       StringToGUID
 0001:0003B808       StringToGUID
 0001:0003BCEC       StringToLPOLESTR
 0001:00006CF8       StringToOleStr
 0001:00022A60       StringToSet
 0001:00006C9C       StringToWideChar
 0001:0000D96C       StrLCat
 0001:0000D9F4       StrLComp
 0001:0000D8D8       StrLCopy
 0001:0000D848       StrLen
 0001:0000E06C       StrLFmt
 0001:0000DA1C       StrLIComp
 0001:0000DB14       StrLower
 0001:0000D874       StrMove
 0001:0000DB64       StrNew
 0001:000129DC       StrNextChar
 0001:0000DB30       StrPas
 0001:0000D90C       StrPCopy
 0001:0000D930       StrPLCopy
 0001:0000DAA4       StrPos
 0001:0000DA80       StrRScan
 0001:0000DA60       StrScan
 0001:0000C250       StrToBool
 0001:0000C284       StrToBoolDef
 0001:00042DF8       StrToConvUnit
 0001:0000F3E8       StrToCurr
 0001:0000F424       StrToCurrDef
 0001:000110A8       StrToDate
 0001:000110DC       StrToDateDef
 0001:000111D8       StrToDateTime
 0001:0001120C       StrToDateTimeDef
 0001:0000F2FC       StrToFloat
 0001:0000F338       StrToFloatDef
 0001:0000C0B4       StrToInt
 0001:0000C128       StrToInt64
 0001:0000C16C       StrToInt64Def
 0001:0000C0F0       StrToIntDef
 0001:00011140       StrToTime
 0001:00011174       StrToTimeDef
 0001:0000DAF8       StrUpper
 0001:0004E318       StrUtils
 0001:0004D97C       StuffString
 0001:000094BC       Succeeded
 0001:00025350       Succeeded
 0001:0003F338       Sum
 0001:0003F28C       SumInt
 0001:0003F388       SumOfSquares
 0001:0003F3C0       SumsAndSquares
 0001:00014E0C       Supports
 0001:00014E60       Supports
 0001:00014D20       Supports
 0001:00014DB8       Supports
 0001:00014CFC       Supports
 0002:00000B4C       SuspendedFlag
 0001:000092B4       SuspendThread
 0001:0003F5E0       SYDDepreciation
 0002:00000ADC       SyncList
 0001:00038C34       SyncObjs
 0001:00000954       SysAllocStringLen
 0001:000099B4       SysConst
 0001:000112C8       SysErrorMessage
 0001:000018F0       SysFreeMem
 0001:00025310       SysFreeString
 0001:00000964       SysFreeString
 0001:00001760       SysGetMem
 0001:00008B1C       SysInit
 0002:000037F8       SysLocale
 0001:00001C64       SysReallocMem
 0001:0000095C       SysReAllocStringLen
 0001:00008870       System
 0001:0000945C       SystemParametersInfo
 0001:0000F958       SystemTimeToDateTime
 0001:00015710       SysUtils
 0001:00057244       TAbstractSocket.Close
 0001:00057028       TAbstractSocket.DoError
 0001:00057014       TAbstractSocket.DoEvent
 0001:00057060       TAbstractSocket.InitSocket
 0001:00057078       TAbstractSocket.Loaded
 0001:0005723C       TAbstractSocket.Open
 0001:00057040       TAbstractSocket.SetActive
 0001:00057090       TAbstractSocket.SetAddress
 0001:00057110       TAbstractSocket.SetHost
 0001:00057190       TAbstractSocket.SetPort
 0001:000571BC       TAbstractSocket.SetService
 0001:00008138       TAggregatedObject.Create
 0001:0000815C       TAggregatedObject.GetController
 0001:00008170       TAggregatedObject.QueryInterface
 0001:0000818C       TAggregatedObject._AddRef
 0001:000081A0       TAggregatedObject._Release
 0001:0003DEA8       Tan
 0001:0003E1A4       Tanh
 0001:0003D0C0       TApartmentThread.Create
 0001:0003D18C       TApartmentThread.Destroy
 0001:0003D1BC       TApartmentThread.Execute
 0001:0005A3A4       TASPMTSObject.GetApplication
 0001:0005A7FC       TASPMTSObject.GetObjectContext
 0001:0005A488       TASPMTSObject.GetRequest
 0001:0005A564       TASPMTSObject.GetResponse
 0001:0005A644       TASPMTSObject.GetServer
 0001:0005A720       TASPMTSObject.GetSession
 0001:0005A250       TASPObject.GetApplication
 0001:0005A270       TASPObject.GetRequest
 0001:0005A290       TASPObject.GetResponse
 0001:0005A2B0       TASPObject.GetScriptingContext
 0001:0005A2C4       TASPObject.GetServer
 0001:0005A2E4       TASPObject.GetSession
 0001:0005A304       TASPObject.OnEndPage
 0001:0005A340       TASPObject.OnStartPage
 0001:0003B4D8       TAutoIntfObject.Create
 0001:0003B540       TAutoIntfObject.GetIDsOfNames
 0001:0003B560       TAutoIntfObject.GetTypeInfo
 0001:0003B590       TAutoIntfObject.GetTypeInfoCount
 0001:0003B5E4       TAutoIntfObject.InterfaceSupportsErrorInfo
 0001:0003B5A4       TAutoIntfObject.Invoke
 0001:0003B60C       TAutoIntfObject.SafeCallException
 0001:0003B1C8       TAutoObject.EventConnect
 0001:0003B228       TAutoObject.EventSinkChanged
 0001:0003B24C       TAutoObject.GetIDsOfNames
 0001:0003B270       TAutoObject.GetTypeInfo
 0001:0003B2A4       TAutoObject.GetTypeInfoCount
 0001:0003B22C       TAutoObject.Initialize
 0001:0003B2B8       TAutoObject.Invoke
 0001:0003B2FC       TAutoObjectFactory.Create
 0001:0003B4B8       TAutoObjectFactory.GetIntfEntry
 0001:00037874       TBasicAction.Change
 0001:00037710       TBasicAction.Create
 0001:00037754       TBasicAction.Destroy
 0001:000377E0       TBasicAction.Execute
 0001:000377B0       TBasicAction.ExecuteTarget
 0001:000377AC       TBasicAction.HandlesTarget
 0001:000377B4       TBasicAction.Notification
 0001:00037888       TBasicAction.RegisterChanges
 0001:00037818       TBasicAction.SetOnExecute
 0001:00037894       TBasicAction.UnRegisterChanges
 0001:000377FC       TBasicAction.Update
 0001:000377DC       TBasicAction.UpdateTarget
 0001:00037640       TBasicActionLink.AssignClient
 0001:00037678       TBasicActionLink.Change
 0001:000375FC       TBasicActionLink.Create
 0001:00037644       TBasicActionLink.Destroy
 0001:00037690       TBasicActionLink.Execute
 0001:000376F8       TBasicActionLink.IsOnExecuteLinked
 0001:000376CC       TBasicActionLink.SetAction
 0001:000376FC       TBasicActionLink.SetOnExecute
 0001:00037704       TBasicActionLink.Update
 0001:0002B2CC       TBits.Destroy
 0001:0002B2FC       TBits.Error
 0001:0002B3F0       TBits.GetBit
 0001:0002B408       TBits.OpenBit
 0001:0002B3C4       TBits.SetBit
 0001:0002B320       TBits.SetSize
 0001:0004150C       TBucketList.BucketFor
 0001:00041520       TBucketList.Create
 0001:00028E2C       TClassFinder.Create
 0001:00028F58       TClassFinder.Destroy
 0001:00028F88       TClassFinder.GetClass
 0001:00029010       TClassFinder.GetClasses
 0001:00040D44       TClassList.Add
 0001:00040D4C       TClassList.Extract
 0001:00040D60       TClassList.First
 0001:00040D6C       TClassList.GetItems
 0001:00040D80       TClassList.IndexOf
 0001:00040D88       TClassList.Insert
 0001:00040D90       TClassList.Last
 0001:00040D9C       TClassList.Remove
 0001:00040DA4       TClassList.SetItems
 0001:00057748       TClientSocket.Create
 0001:000577A8       TClientSocket.Destroy
 0001:000577D8       TClientSocket.DoActivate
 0001:00057828       TClientSocket.GetClientType
 0001:00057834       TClientSocket.SetClientType
 0001:000560D4       TClientWinSocket.Connect
 0001:000560E8       TClientWinSocket.SetClientType
 0001:0002BB74       TCollection.Add
 0001:0002C050       TCollection.Added
 0001:0002BB94       TCollection.Assign
 0001:0002BC2C       TCollection.BeginUpdate
 0001:0002BC30       TCollection.Changed
 0001:0002BC40       TCollection.Clear
 0001:0002BADC       TCollection.Create
 0001:0002C014       TCollection.Delete
 0001:0002C054       TCollection.Deleting
 0001:0002BB28       TCollection.Destroy
 0001:0002BCA8       TCollection.EndUpdate
 0001:0002BCB4       TCollection.FindItemID
 0001:0002BCE8       TCollection.GetAttr
 0001:0002BCE4       TCollection.GetAttrCount
 0001:0002BD14       TCollection.GetCount
 0001:0002BD1C       TCollection.GetItem
 0001:0002BCF4       TCollection.GetItemAttr
 0001:0002BD30       TCollection.GetNamePath
 0001:0002BDF8       TCollection.GetPropName
 0001:0002BF14       TCollection.Insert
 0001:0002BF30       TCollection.InsertItem
 0001:0002C058       TCollection.Notify
 0001:0002C044       TCollection.Owner
 0001:0002BF98       TCollection.RemoveItem
 0001:0002BFEC       TCollection.SetItem
 0001:0002C00C       TCollection.SetItemName
 0001:0002C010       TCollection.Update
 0001:0002B960       TCollectionItem.Changed
 0001:0002B8F8       TCollectionItem.Create
 0001:0002B930       TCollectionItem.Destroy
 0001:0002B99C       TCollectionItem.GetDisplayName
 0001:0002B984       TCollectionItem.GetIndex
 0001:0002B9C4       TCollectionItem.GetNamePath
 0001:0002BA78       TCollectionItem.GetOwner
 0001:0002BA7C       TCollectionItem.SetCollection
 0001:0002BAA4       TCollectionItem.SetDisplayName
 0001:0002BAAC       TCollectionItem.SetIndex
 0001:00039E14       TComClassManager.AddObjectFactory
 0001:00039DA0       TComClassManager.Create
 0001:00039DE4       TComClassManager.Destroy
 0001:00039E6C       TComClassManager.ForEachFactory
 0001:00039ED8       TComClassManager.GetFactoryFromClass
 0001:00039F8C       TComClassManager.GetFactoryFromClassID
 0001:0003A010       TComClassManager.RemoveObjectFactory
 0001:0003A08C       TComObject.Create
 0001:0003A0DC       TComObject.CreateAggregated
 0001:0003A130       TComObject.CreateFromFactory
 0001:0003A190       TComObject.Destroy
 0001:0003A1E0       TComObject.GetController
 0001:0003A1F4       TComObject.Initialize
 0001:0003A4BC       TComObject.InterfaceSupportsErrorInfo
 0001:0003A40C       TComObject.ObjAddRef
 0001:0003A3E4       TComObject.ObjQueryInterface
 0001:0003A420       TComObject.ObjRelease
 0001:0003A448       TComObject.QueryInterface
 0001:0003A1F8       TComObject.SafeCallException
 0001:0003A474       TComObject._AddRef
 0001:0003A498       TComObject._Release
 0001:0003A4E0       TComObjectFactory.Create
 0001:0003A604       TComObjectFactory.CreateComObject
 0001:0003AA84       TComObjectFactory.CreateInstance
 0001:0003ABD0       TComObjectFactory.CreateInstanceLic
 0001:0003A5D0       TComObjectFactory.Destroy
 0001:0003A99C       TComObjectFactory.GetLicenseString
 0001:0003AADC       TComObjectFactory.GetLicInfo
 0001:0003A614       TComObjectFactory.GetProgID
 0001:0003A9C0       TComObjectFactory.HasMachineLicense
 0001:0003AAA4       TComObjectFactory.LockServer
 0001:0003AA34       TComObjectFactory.QueryInterface
 0001:0003A68C       TComObjectFactory.RegisterClassObject
 0001:0003AB98       TComObjectFactory.RequestLicKey
 0001:0003A71C       TComObjectFactory.UpdateRegistry
 0001:0003A9C4       TComObjectFactory.ValidateUserLicense
 0001:0003AA5C       TComObjectFactory._AddRef
 0001:0003AA70       TComObjectFactory._Release
 0001:0004F260       TComplexData.Create
 0001:0004F1CC       TComplexData.Create
 0001:0004F21C       TComplexData.Create
 0001:0004F1AC       TComplexData.DoAdd
 0001:0004FC58       TComplexData.DoConjugate
 0001:0004FA3C       TComplexData.DoCos
 0001:0004F2AC       TComplexData.DoDivide
 0001:0004FC64       TComplexData.DoExp
 0001:0004FCC8       TComplexData.DoInverse
 0001:0004FD68       TComplexData.DoLn
 0001:0004F440       TComplexData.DoMultiply
 0001:0004F470       TComplexData.DoNegate
 0001:00050000       TComplexData.DoPower
 0001:0004FAC4       TComplexData.DoSin
 0001:0004FDC8       TComplexData.DoSqr
 0001:0004FE1C       TComplexData.DoSqrt
 0001:0004F98C       TComplexData.DoSubtract
 0001:0004FB48       TComplexData.DoTan
 0001:0004FF58       TComplexData.DoTimesNegI
 0001:0004FF70       TComplexData.DoTimesPosI
 0001:0004FFBC       TComplexData.Equal
 0001:0004F9CC       TComplexData.GetAbs
 0001:0004F9E8       TComplexData.GetAbsSqr
 0001:0004FA10       TComplexData.GetAngle
 0001:0005007C       TComplexData.GetAsPolar
 0001:0004F3B4       TComplexData.GetAsString
 0001:00050224       TComplexData.GetFixedTheta
 0001:000501EC       TComplexData.GetRadius
 0001:00050208       TComplexData.GetTheta
 0001:0004FF88       TComplexData.IsZero
 0001:000501B4       TComplexData.SetAsPolar
 0001:0004F700       TComplexData.SetAsString
 0001:0004F9AC       TComplexData.SetBoth
 0001:00050240       TComplexVariantType.BinaryOp
 0001:00050364       TComplexVariantType.Cast
 0001:00050494       TComplexVariantType.CastTo
 0001:000505C0       TComplexVariantType.Clear
 0001:000505D0       TComplexVariantType.CompareOp
 0001:00050634       TComplexVariantType.Copy
 0001:00050680       TComplexVariantType.GetInstance
 0001:00050684       TComplexVariantType.IsClear
 0001:000506A4       TComplexVariantType.LeftPromotion
 0001:000506E0       TComplexVariantType.RightPromotion
 0001:000506F4       TComplexVariantType.StreamIn
 0001:0005076C       TComplexVariantType.StreamOut
 0001:000507E0       TComplexVariantType.UnaryOp
 0001:00036B80       TComponent.BeforeDestruction
 0001:000370A0       TComponent.ChangeName
 0001:00036ABC       TComponent.Create
 0001:00036E34       TComponent.DefineProperties
 0001:00036B08       TComponent.Destroy
 0001:00036D04       TComponent.DestroyComponents
 0001:00036D5C       TComponent.Destroying
 0001:0003726C       TComponent.ExecuteAction
 0001:00036FC4       TComponent.FindComponent
 0001:00036B8C       TComponent.FreeNotification
 0001:00037370       TComponent.FreeOnRelease
 0001:00036EC8       TComponent.GetChildOwner
 0001:00036ECC       TComponent.GetChildParent
 0001:00036EC0       TComponent.GetChildren
 0001:000372D0       TComponent.GetComObject
 0001:000370D0       TComponent.GetComponent
 0001:000370FC       TComponent.GetComponentCount
 0001:000370B4       TComponent.GetComponentIndex
 0001:00037458       TComponent.GetIDsOfNames
 0001:00036ED0       TComponent.GetNamePath
 0001:00036EE4       TComponent.GetOwner
 0001:00036EEC       TComponent.GetParentComponent
 0001:0003742C       TComponent.GetTypeInfo
 0001:00037408       TComponent.GetTypeInfoCount
 0001:00036EBC       TComponent.HasParent
 0001:00036C20       TComponent.Insert
 0001:00036C74       TComponent.InsertComponent
 0001:000374D0       TComponent.IntfGetComponent
 0001:0003748C       TComponent.Invoke
 0001:000374D4       TComponent.IsImplementorOf
 0001:00036F0C       TComponent.Loaded
 0001:00036DD8       TComponent.Notification
 0001:00036F18       TComponent.PaletteCreated
 0001:00037388       TComponent.QueryInterface
 0001:00036BE0       TComponent.ReadLeft
 0001:00036F1C       TComponent.ReadState
 0001:00036BF4       TComponent.ReadTop
 0001:00037554       TComponent.ReferenceInterface
 0001:00036C4C       TComponent.Remove
 0001:00036CCC       TComponent.RemoveComponent
 0001:00036DBC       TComponent.RemoveFreeNotification
 0001:00036D98       TComponent.RemoveNotification
 0001:00037358       TComponent.SafeCallException
 0001:00037160       TComponent.SetAncestor
 0001:00036EE8       TComponent.SetChildOrder
 0001:0003710C       TComponent.SetComponentIndex
 0001:000371A4       TComponent.SetDesigning
 0001:0003720C       TComponent.SetDesignInstance
 0001:000371F4       TComponent.SetInline
 0001:00037014       TComponent.SetName
 0001:00036EF0       TComponent.SetParentComponent
 0001:00037224       TComponent.SetReference
 0001:000372BC       TComponent.SetSubComponent
 0001:00037294       TComponent.UpdateAction
 0001:00036F00       TComponent.Updated
 0001:00037380       TComponent.UpdateRegistry
 0001:00036EF4       TComponent.Updating
 0001:00036FAC       TComponent.ValidateContainer
 0001:00036FC0       TComponent.ValidateInsert
 0001:00036F2C       TComponent.ValidateRename
 0001:00036C08       TComponent.WriteLeft
 0001:00036F24       TComponent.WriteState
 0001:00036C14       TComponent.WriteTop
 0001:000373C8       TComponent._AddRef
 0001:000373E8       TComponent._Release
 0001:0003D428       TComponentFactory.Create
 0001:0003D5C8       TComponentFactory.CreateComObject
 0001:0003D474       TComponentFactory.CreateInstance
 0001:0003D548       TComponentFactory.UpdateRegistry
 0001:00040C3C       TComponentList.Add
 0001:00040C44       TComponentList.Destroy
 0001:00040C74       TComponentList.Extract
 0001:00040C88       TComponentList.First
 0001:00040C94       TComponentList.GetItems
 0001:00040CA8       TComponentList.HandleFreeNotify
 0001:00040CB0       TComponentList.IndexOf
 0001:00040CB8       TComponentList.Insert
 0001:00040CC0       TComponentList.Last
 0001:00040CCC       TComponentList.Notify
 0001:00040D34       TComponentList.Remove
 0001:00040D3C       TComponentList.SetItems
 0001:00040C0C       TComponentListNexus.Notification
 0001:000081B4       TContainedObject.QueryInterface
 0001:0004E4E4       TConvertVariantType.BinaryOp
 0001:0004E970       TConvertVariantType.CastTo
 0001:0004EAA4       TConvertVariantType.Clear
 0001:0004EAAC       TConvertVariantType.Compare
 0001:0004EBDC       TConvertVariantType.Copy
 0001:0004EBF0       TConvertVariantType.GetProperty
 0001:0004EDF0       TConvertVariantType.IsClear
 0001:0004EE04       TConvertVariantType.RightPromotion
 0001:0004EE9C       TConvertVariantType.SetProperty
 0001:0004EEE0       TConvertVariantType.UnaryOp
 0001:00042B2C       TConvFamilyInfo.Create
 0001:00042C70       TConvTypeFactor.Create
 0001:00042D34       TConvTypeFactor.FromCommon
 0001:00042D50       TConvTypeFactor.ToCommon
 0001:00042B7C       TConvTypeInfo.Create
 0001:00042D6C       TConvTypeProcs.Create
 0001:00042DB8       TConvTypeProcs.FromCommon
 0001:00042DD8       TConvTypeProcs.ToCommon
 0001:00038BDC       TCriticalSection.Acquire
 0001:00038B6C       TCriticalSection.Create
 0001:00038BAC       TCriticalSection.Destroy
 0001:00038BF4       TCriticalSection.Enter
 0001:00038BFC       TCriticalSection.Leave
 0001:00038BE8       TCriticalSection.Release
 0001:00040EFC       TCustomBucketList.Add
 0001:00040FD0       TCustomBucketList.AddItem
 0001:00041068       TCustomBucketList.Assign
 0001:00041088       TCustomBucketList.Clear
 0001:00041130       TCustomBucketList.DeleteItem
 0001:00041184       TCustomBucketList.Destroy
 0001:000411B0       TCustomBucketList.Exists
 0001:000411C8       TCustomBucketList.Find
 0001:00041204       TCustomBucketList.FindItem
 0001:00041258       TCustomBucketList.ForEach
 0001:00041314       TCustomBucketList.GetData
 0001:000413B0       TCustomBucketList.Remove
 0001:00041444       TCustomBucketList.SetBucketCount
 0001:0004146C       TCustomBucketList.SetData
 0001:00045FC0       TCustomIniFile.Create
 0001:000466BC       TCustomIniFile.ReadBinaryStream
 0001:00046188       TCustomIniFile.ReadBool
 0001:000461B4       TCustomIniFile.ReadDate
 0001:0004626C       TCustomIniFile.ReadDateTime
 0001:00046324       TCustomIniFile.ReadFloat
 0001:00046068       TCustomIniFile.ReadInteger
 0001:000463DC       TCustomIniFile.ReadTime
 0001:00045FFC       TCustomIniFile.SectionExists
 0001:0004664C       TCustomIniFile.ValueExists
 0001:0004682C       TCustomIniFile.WriteBinaryStream
 0001:00046630       TCustomIniFile.WriteBool
 0001:00046494       TCustomIniFile.WriteDate
 0001:000464F4       TCustomIniFile.WriteDateTime
 0001:00046554       TCustomIniFile.WriteFloat
 0001:0004612C       TCustomIniFile.WriteInteger
 0001:000465B8       TCustomIniFile.WriteTime
 0001:0002E29C       TCustomMemoryStream.Read
 0001:0002E310       TCustomMemoryStream.SaveToFile
 0001:0002E2F8       TCustomMemoryStream.SaveToStream
 0001:0002E2D4       TCustomMemoryStream.Seek
 0001:0002E294       TCustomMemoryStream.SetPointer
 0001:00057840       TCustomServerSocket.Destroy
 0001:00057870       TCustomServerSocket.DoActivate
 0001:000578FC       TCustomServerSocket.GetGetSocketEvent
 0001:000578CC       TCustomServerSocket.GetGetThreadEvent
 0001:00057AA8       TCustomServerSocket.GetOnClientError
 0001:000579B4       TCustomServerSocket.GetOnClientEvent
 0001:0005795C       TCustomServerSocket.GetOnThreadEnd
 0001:00057944       TCustomServerSocket.GetOnThreadStart
 0001:000578B4       TCustomServerSocket.GetServerType
 0001:0005792C       TCustomServerSocket.GetThreadCacheSize
 0001:00057910       TCustomServerSocket.SetGetSocketEvent
 0001:000578E0       TCustomServerSocket.SetGetThreadEvent
 0001:00057AC0       TCustomServerSocket.SetOnClientError
 0001:00057A2C       TCustomServerSocket.SetOnClientEvent
 0001:00057994       TCustomServerSocket.SetOnThreadEnd
 0001:00057974       TCustomServerSocket.SetOnThreadStart
 0001:000578C0       TCustomServerSocket.SetServerType
 0001:00057938       TCustomServerSocket.SetThreadCacheSize
 0001:0005734C       TCustomSocket.Error
 0001:0005724C       TCustomSocket.Event
 0001:0001FDBC       TCustomVariantType.BinaryOp
 0001:0001FDC8       TCustomVariantType.Cast
 0001:0001FE00       TCustomVariantType.CastTo
 0001:0001FE8C       TCustomVariantType.CastToOle
 0001:0001FE48       TCustomVariantType.Compare
 0001:0001FE54       TCustomVariantType.CompareOp
 0001:0001FEC8       TCustomVariantType.Create
 0001:0001FF0C       TCustomVariantType.Create
 0001:00020170       TCustomVariantType.Destroy
 0001:00020314       TCustomVariantType.DispInvoke
 0001:000201FC       TCustomVariantType.IsClear
 0001:00020200       TCustomVariantType.LeftPromotion
 0001:00020214       TCustomVariantType.OlePromotion
 0001:00020358       TCustomVariantType.QueryInterface
 0001:0002021C       TCustomVariantType.RaiseCastError
 0001:0002022C       TCustomVariantType.RaiseDispError
 0001:00020224       TCustomVariantType.RaiseInvalidOp
 0001:00020234       TCustomVariantType.RightPromotion
 0001:00020248       TCustomVariantType.SimplisticClear
 0001:00020250       TCustomVariantType.SimplisticCopy
 0001:00020288       TCustomVariantType.UnaryOp
 0001:000202B8       TCustomVariantType.VarDataCast
 0001:000202C8       TCustomVariantType.VarDataCastTo
 0001:000202DC       TCustomVariantType.VarDataCastTo
 0001:000202E8       TCustomVariantType.VarDataCastToOleStr
 0001:00020298       TCustomVariantType.VarDataClear
 0001:000202A0       TCustomVariantType.VarDataCopy
 0001:000202AC       TCustomVariantType.VarDataCopyNoInd
 0001:00020334       TCustomVariantType.VarDataFromOleStr
 0001:00020328       TCustomVariantType.VarDataFromStr
 0001:00020290       TCustomVariantType.VarDataInit
 0001:00020304       TCustomVariantType.VarDataIsArray
 0001:0002030C       TCustomVariantType.VarDataIsByRef
 0001:00020320       TCustomVariantType.VarDataIsEmptyParam
 0001:000203A4       TCustomVariantType.VarDataIsFloat
 0001:00020380       TCustomVariantType.VarDataIsNumeric
 0001:0002038C       TCustomVariantType.VarDataIsOrdinal
 0001:00020398       TCustomVariantType.VarDataIsStr
 0001:000203B0       TCustomVariantType.VarDataToStr
 0001:00020340       TCustomVariantType._AddRef
 0001:0002034C       TCustomVariantType._Release
 0001:00054B24       TCustomWinSocket.Accept
 0001:00054B28       TCustomWinSocket.AsyncInitSocket
 0001:00054DE0       TCustomWinSocket.Close
 0001:00054F4C       TCustomWinSocket.CMDeferFree
 0001:00055F7C       TCustomWinSocket.CMLookupComplete
 0001:00054EC0       TCustomWinSocket.CMSocketMessage
 0001:00054DEC       TCustomWinSocket.Connect
 0001:00054A40       TCustomWinSocket.Create
 0001:00055938       TCustomWinSocket.DefaultHandler
 0001:00054F54       TCustomWinSocket.DeferFree
 0001:00054AB8       TCustomWinSocket.Destroy
 0001:0005582C       TCustomWinSocket.Disconnect
 0001:00054FC8       TCustomWinSocket.DoListen
 0001:00055048       TCustomWinSocket.DoOpen
 0001:00054F6C       TCustomWinSocket.DoSetAsyncStyles
 0001:0005597C       TCustomWinSocket.Error
 0001:00055964       TCustomWinSocket.Event
 0001:000550B4       TCustomWinSocket.GetHandle
 0001:000550D0       TCustomWinSocket.GetLocalAddress
 0001:0005515C       TCustomWinSocket.GetLocalHost
 0001:000551E4       TCustomWinSocket.GetLocalPort
 0001:00055470       TCustomWinSocket.GetRemoteAddr
 0001:00055324       TCustomWinSocket.GetRemoteAddress
 0001:00055270       TCustomWinSocket.GetRemoteHost
 0001:000553CC       TCustomWinSocket.GetRemotePort
 0001:0005558C       TCustomWinSocket.InitSocket
 0001:00055624       TCustomWinSocket.Listen
 0001:00054DF0       TCustomWinSocket.Lock
 0001:000554FC       TCustomWinSocket.LookupName
 0001:00055558       TCustomWinSocket.LookupService
 0001:0005572C       TCustomWinSocket.Open
 0001:00055D28       TCustomWinSocket.Read
 0001:00055D44       TCustomWinSocket.ReceiveBuf
 0001:00055EB0       TCustomWinSocket.ReceiveLength
 0001:00055EBC       TCustomWinSocket.ReceiveText
 0001:00055BBC       TCustomWinSocket.SendBuf
 0001:00055B8C       TCustomWinSocket.SendStream
 0001:00055A04       TCustomWinSocket.SendStreamPiece
 0001:00055BA4       TCustomWinSocket.SendStreamThenDrop
 0001:000559A0       TCustomWinSocket.SendText
 0001:00055D00       TCustomWinSocket.SetAsyncStyles
 0001:00054DFC       TCustomWinSocket.Unlock
 0001:00055EF8       TCustomWinSocket.WndProc
 0001:00055F4C       TCustomWinSocket.Write
 0001:00037F84       TDataModule.AfterConstruction
 0001:00037FEC       TDataModule.BeforeDestruction
 0001:00037E44       TDataModule.Create
 0001:00037F90       TDataModule.CreateNew
 0001:00038230       TDataModule.DefineProperties
 0001:00038018       TDataModule.Destroy
 0001:000380B4       TDataModule.DoCreate
 0001:00038114       TDataModule.DoDestroy
 0001:00038344       TDataModule.GetChildren
 0001:000383B0       TDataModule.HandleCreateException
 0001:00038420       TDataModule.ReadHeight
 0001:000383F8       TDataModule.ReadHorizontalOffset
 0001:000383D0       TDataModule.ReadState
 0001:0003840C       TDataModule.ReadVerticalOffset
 0001:000383E4       TDataModule.ReadWidth
 0001:00038458       TDataModule.WriteHeight
 0001:00038440       TDataModule.WriteHorizontalOffset
 0001:0003844C       TDataModule.WriteVerticalOffset
 0001:00038434       TDataModule.WriteWidth
 0001:00039C18       TDispatchSilencer.Create
 0001:00039D40       TDispatchSilencer.GetIDsOfNames
 0001:00039D20       TDispatchSilencer.GetTypeInfo
 0001:00039D08       TDispatchSilencer.GetTypeInfoCount
 0001:00039D68       TDispatchSilencer.Invoke
 0001:00039CB4       TDispatchSilencer.QueryInterface
 0002:0000386C       TempVarAdd
 0002:00003884       TempVarAnd
 0002:000038A8       TempVarBoolFromStr
 0002:000038B4       TempVarBstrFromBool
 0002:000038AC       TempVarBstrFromCy
 0002:000038B0       TempVarBstrFromDate
 0002:00003890       TempVarCmp
 0002:000038A4       TempVarCyFromStr
 0002:000038A0       TempVarDateFromStr
 0002:00003878       TempVarDiv
 0002:00003894       TempVarI4FromStr
 0002:00003860       TempVariantChangeTypeEx
 0002:0000387C       TempVarIDiv
 0002:00003880       TempVarMod
 0002:00003874       TempVarMul
 0002:00003864       TempVarNeg
 0002:00003868       TempVarNot
 0002:00003888       TempVarOr
 0002:00003898       TempVarR4FromStr
 0002:0000389C       TempVarR8FromStr
 0002:00003870       TempVarSub
 0002:0000388C       TempVarXor
 0002:00000294       Ten
 0002:00000284       tenE17
 0002:0000028C       tenE18
 0002:00000590       TerminateProcList
 0002:00003052       Test8086
 0002:00000010       Test8087
 0002:00003053       TestFDIV
 0001:0003632C       TestStreamFormat
 0001:00038A74       TEvent.Create
 0001:00038B20       TEvent.ResetEvent
 0001:00038B14       TEvent.SetEvent
 0001:00038ACC       TEvent.WaitFor
 0001:000028D4       TextClose
 0001:00002848       TextIn
 0001:000028F4       TextOpen
 0001:00002888       TextOut
 0001:000007E8       TextStart
 0001:0000EF94       TextToFloat
 0001:0002E8CC       TFiler.Create
 0001:0002E914       TFiler.Destroy
 0001:0002E93C       TFiler.SetRoot
 0001:0002E154       TFileStream.Create
 0001:0002E198       TFileStream.Create
 0001:0002E260       TFileStream.Destroy
 0001:00038A44       THandleObject.Destroy
 0001:0002E090       THandleStream.Create
 0001:0002E0CC       THandleStream.Read
 0001:0002E0EC       THandleStream.Seek
 0001:0002E12C       THandleStream.SetSize
 0001:0002E118       THandleStream.SetSize
 0001:0002E0DC       THandleStream.Write
 0001:00046BAC       THashedStringList.Changed
 0001:00046BC0       THashedStringList.Destroy
 0001:00046BF8       THashedStringList.IndexOf
 0001:00046C68       THashedStringList.IndexOfName
 0001:00046CD8       THashedStringList.UpdateNameHash
 0001:00046DF8       THashedStringList.UpdateValueHash
 0001:000532B4       THelpManager.AssignHelpSelector
 0001:00052D80       THelpManager.CallSpecialWinHelp
 0001:000529BC       THelpManager.Create
 0001:0005347C       THelpManager.Destroy
 0001:00052BB0       THelpManager.DoSoftShutDown
 0001:00052BE0       THelpManager.DoTableOfContents
 0001:000533D4       THelpManager.GetHandle
 0001:000533D8       THelpManager.GetHelpFile
 0001:00053318       THelpManager.Hook
 0001:00052A30       THelpManager.RegisterViewer
 0001:000533EC       THelpManager.Release
 0001:0005309C       THelpManager.ShowContextHelp
 0001:00052E88       THelpManager.ShowHelp
 0001:000531B0       THelpManager.ShowTableOfContents
 0001:000531B8       THelpManager.ShowTopicHelp
 0001:00052B68       THelpManager.UnloadAllViewers
 0001:00052940       THelpViewerNode.Create
 0002:0000373E       ThousandSeparator
 0002:00003A84       ThreadCount
 0002:00003A6C       ThreadLock
 0001:00036578       ThreadProc
 0002:00000B54       ThreadStrs
 0001:000057A4       ThreadWrapper
 0001:0000FA1C       Time
 0002:00003750       TimeAMString
 0001:000435F4       TimeOf
 0002:00003754       TimePMString
 0002:0000374C       TimeSeparator
 0001:0000F4F8       TimeStampToDateTime
 0001:0000F554       TimeStampToMSecs
 0001:00010874       TimeToStr
 0001:00047C10       TIniFile.DeleteKey
 0001:00047770       TIniFile.Destroy
 0001:00047BBC       TIniFile.EraseSection
 0001:00047968       TIniFile.ReadSection
 0001:00047868       TIniFile.ReadSections
 0001:00047A70       TIniFile.ReadSectionValues
 0001:0004779C       TIniFile.ReadString
 0001:00047C40       TIniFile.UpdateFile
 0001:000477FC       TIniFile.WriteString
 0001:0002962C       TIntConst.Create
 0001:000080A8       TInterfacedObject.AfterConstruction
 0001:000080B4       TInterfacedObject.BeforeDestruction
 0001:000080C4       TInterfacedObject.NewInstance
 0001:000080D4       TInterfacedObject.QueryInterface
 0001:000080FC       TInterfacedObject._AddRef
 0001:00008110       TInterfacedObject._Release
 0001:0002B650       TInterfacedPersistent.AfterConstruction
 0001:0002B6E0       TInterfacedPersistent.QueryInterface
 0001:0002B6A0       TInterfacedPersistent._AddRef
 0001:0002B6C0       TInterfacedPersistent._Release
 0001:0002AF9C       TInterfaceList.Add
 0001:0002ACF8       TInterfaceList.Clear
 0001:0002AC80       TInterfaceList.Create
 0001:0002AD68       TInterfaceList.Delete
 0001:0002ACC4       TInterfaceList.Destroy
 0001:0002B260       TInterfaceList.Exchange
 0001:0002ADC8       TInterfaceList.Expand
 0001:0002AE1C       TInterfaceList.First
 0001:0002AE30       TInterfaceList.Get
 0001:0002AEA4       TInterfaceList.GetCapacity
 0001:0002AEF4       TInterfaceList.GetCount
 0001:0002AF44       TInterfaceList.IndexOf
 0001:0002B00C       TInterfaceList.Insert
 0001:0002B074       TInterfaceList.Last
 0001:0002B2B4       TInterfaceList.Lock
 0001:0002B0D0       TInterfaceList.Put
 0001:0002B144       TInterfaceList.Remove
 0001:0002B1C0       TInterfaceList.SetCapacity
 0001:0002B210       TInterfaceList.SetCount
 0001:0002B2C0       TInterfaceList.Unlock
 0001:000206C8       TInvokeableVariantType.DispInvoke
 0001:0002098C       TInvokeableVariantType.DoFunction
 0001:00020998       TInvokeableVariantType.DoProcedure
 0001:00020974       TInvokeableVariantType.GetProperty
 0001:00020980       TInvokeableVariantType.SetProperty
 0001:00015010       TLanguages.Create
 0001:00015080       TLanguages.GetCount
 0001:00015090       TLanguages.GetExt
 0001:000150B0       TLanguages.GetID
 0001:0001511C       TLanguages.GetLCID
 0001:00015128       TLanguages.GetName
 0001:00015180       TLanguages.GetNameFromLCID
 0001:00015148       TLanguages.GetNameFromLocaleID
 0001:000151A4       TLanguages.IndexOf
 0001:00014EEC       TLanguages.LocalesCallback
 0001:0005F274       TlHelp32
 0001:0002A27C       TList.Add
 0001:0002A7A4       TList.Assign
 0001:0002A2B0       TList.Clear
 0001:0002A2C8       TList.Delete
 0001:0002A25C       TList.Destroy
 0001:0002A32C       TList.Error
 0001:0002A364       TList.Error
 0001:0002A3B8       TList.Exchange
 0001:0002A408       TList.Expand
 0001:0002A764       TList.Extract
 0001:0002A420       TList.First
 0001:0002A428       TList.Get
 0001:0002A450       TList.Grow
 0001:0002A484       TList.IndexOf
 0001:0002A4A4       TList.Insert
 0001:0002A510       TList.Last
 0001:0002A51C       TList.Move
 0001:0002A7A0       TList.Notify
 0001:0002A5E8       TList.Pack
 0001:0002A574       TList.Put
 0001:0002A5C8       TList.Remove
 0001:0002A614       TList.SetCapacity
 0001:0002A650       TList.SetCount
 0001:0002A744       TList.Sort
 0001:00008910       TlsAlloc
 0002:00003728       tlsBuffer
 0001:00008918       TlsFree
 0001:00008920       TlsGetValue
 0002:00003718       TlsIndex
 0002:BFF9F014       TlsLast
 0002:00000308       TlsProc
 0001:00008928       TlsSetValue
 0001:000483EC       TMask.Create
 0001:00048458       TMask.Destroy
 0001:00048494       TMask.Matches
 0001:00046F54       TMemIniFile.AddSection
 0001:00046FC4       TMemIniFile.Clear
 0001:00046ECC       TMemIniFile.Create
 0001:00046FFC       TMemIniFile.DeleteKey
 0001:00046F18       TMemIniFile.Destroy
 0001:00047038       TMemIniFile.EraseSection
 0001:00047068       TMemIniFile.GetCaseSensitive
 0001:00047070       TMemIniFile.GetStrings
 0001:000471B8       TMemIniFile.LoadValues
 0001:0004722C       TMemIniFile.ReadSection
 0001:000472F8       TMemIniFile.ReadSections
 0001:00047308       TMemIniFile.ReadSectionValues
 0001:0004737C       TMemIniFile.ReadString
 0001:00047424       TMemIniFile.Rename
 0001:00047448       TMemIniFile.SetCaseSensitive
 0001:000474AC       TMemIniFile.SetStrings
 0001:00047654       TMemIniFile.UpdateFile
 0001:000476B0       TMemIniFile.WriteString
 0001:0002E394       TMemoryStream.Clear
 0001:0002E368       TMemoryStream.Destroy
 0001:0002E3E4       TMemoryStream.LoadFromFile
 0001:0002E3AC       TMemoryStream.LoadFromStream
 0001:0002E48C       TMemoryStream.Realloc
 0001:0002E438       TMemoryStream.SetCapacity
 0001:0002E460       TMemoryStream.SetSize
 0001:0002E518       TMemoryStream.Write
 0001:00014C28       TMultiReadExclusiveWriteSynchronizer.BeginRead
 0001:00014B3C       TMultiReadExclusiveWriteSynchronizer.BeginWrite
 0001:00014AF8       TMultiReadExclusiveWriteSynchronizer.BlockReaders
 0001:00014A3C       TMultiReadExclusiveWriteSynchronizer.Create
 0001:00014AB0       TMultiReadExclusiveWriteSynchronizer.Destroy
 0001:00014C84       TMultiReadExclusiveWriteSynchronizer.EndRead
 0001:00014BD8       TMultiReadExclusiveWriteSynchronizer.EndWrite
 0001:00014B10       TMultiReadExclusiveWriteSynchronizer.UnblockOneWriter
 0001:00014B04       TMultiReadExclusiveWriteSynchronizer.UnblockReaders
 0001:00014B1C       TMultiReadExclusiveWriteSynchronizer.WaitForReadSignal
 0001:00014B2C       TMultiReadExclusiveWriteSynchronizer.WaitForWriteSignal
 0001:000049A8       TObject.AfterConstruction
 0001:000049AC       TObject.BeforeDestruction
 0001:00004994       TObject.ClassInfo
 0001:00004674       TObject.ClassName
 0001:00004688       TObject.ClassNameIs
 0001:000046B0       TObject.ClassParent
 0001:0000466C       TObject.ClassType
 0001:00004788       TObject.CleanupInstance
 0001:000046F4       TObject.Create
 0001:000049A4       TObject.DefaultHandler
 0001:00004714       TObject.Destroy
 0001:000049B0       TObject.Dispatch
 0001:00004A68       TObject.FieldAddress
 0001:00004724       TObject.Free
 0001:000046D8       TObject.FreeInstance
 0001:000047D8       TObject.GetInterface
 0001:0000486C       TObject.GetInterfaceEntry
 0001:000048B0       TObject.GetInterfaceTable
 0001:00004980       TObject.InheritsFrom
 0001:00004730       TObject.InitInstance
 0001:000046EC       TObject.InstanceSize
 0001:000049D8       TObject.MethodAddress
 0001:00004A28       TObject.MethodName
 0001:000046BC       TObject.NewInstance
 0001:0000499C       TObject.SafeCallException
 0001:0004157C       TObjectBucketList.Add
 0001:00041594       TObjectBucketList.GetData
 0001:000415A8       TObjectBucketList.Remove
 0001:000415BC       TObjectBucketList.SetData
 0001:000409C8       TObjectList.Add
 0001:000409D0       TObjectList.Create
 0001:00040A0C       TObjectList.Create
 0001:00040A50       TObjectList.Extract
 0001:00040A64       TObjectList.FindInstanceOf
 0001:00040AD4       TObjectList.First
 0001:00040AE0       TObjectList.GetItem
 0001:00040AF4       TObjectList.IndexOf
 0001:00040AFC       TObjectList.Insert
 0001:00040B04       TObjectList.Last
 0001:00040B10       TObjectList.Notify
 0001:00040B3C       TObjectList.Remove
 0001:00040B44       TObjectList.SetItem
 0001:00040ED0       TObjectQueue.Peek
 0001:00040EDC       TObjectQueue.Pop
 0001:00040EE8       TObjectQueue.Push
 0001:00040E94       TObjectStack.Peek
 0001:00040EA0       TObjectStack.Pop
 0001:00040EAC       TObjectStack.Push
 0001:000438B0       Today
 0001:00007A34       ToLongPath
 0001:000438E0       Tomorrow
 0001:00040DAC       TOrderedList.AtLeast
 0001:00040DD8       TOrderedList.Count
 0001:00040DE0       TOrderedList.Create
 0001:00040E24       TOrderedList.Destroy
 0001:00040DB8       TOrderedList.Peek
 0001:00040E54       TOrderedList.PeekItem
 0001:00040DC0       TOrderedList.Pop
 0001:00040E68       TOrderedList.PopItem
 0001:00040DC8       TOrderedList.Push
 0001:0003F434       TotalVariance
 0001:0002C07C       TOwnedCollection.Create
 0001:0002C0C0       TOwnedCollection.GetOwner
 0001:00033FF8       TParser.CheckToken
 0001:000340CC       TParser.CheckTokenSymbol
 0001:00033F48       TParser.Create
 0001:00033FBC       TParser.Destroy
 0001:00034140       TParser.Error
 0001:00034148       TParser.ErrorFmt
 0001:000341A4       TParser.ErrorStr
 0001:000341E4       TParser.HexToBinary
 0001:0003429C       TParser.NextToken
 0001:00034544       TParser.ReadBuffer
 0001:0003460C       TParser.SkipBlanks
 0001:00034640       TParser.SourcePos
 0001:000347FC       TParser.TokenComponentIdent
 0001:0003464C       TParser.TokenFloat
 0001:000346B8       TParser.TokenInt
 0001:00034714       TParser.TokenString
 0001:00034798       TParser.TokenSymbolIs
 0001:00034734       TParser.TokenWideString
 0001:0002B4AC       TPersistent.Assign
 0001:0002B4C0       TPersistent.AssignError
 0001:0002B590       TPersistent.AssignTo
 0001:0002B598       TPersistent.DefineProperties
 0001:0002B480       TPersistent.Destroy
 0001:0002B59C       TPersistent.GetNamePath
 0001:0002B64C       TPersistent.GetOwner
 0001:0002EA18       TPropFixup.Create
 0001:0002EA70       TPropFixup.MakeGlobalReference
 0001:0002EAB8       TPropFixup.ResolveReference
 0001:0002EAC8       TPropIntfFixup.ResolveReference
 0001:000222B8       TPublishableVariantType.GetProperty
 0001:00022328       TPublishableVariantType.SetProperty
 0001:00040EC0       TQueue.PushItem
 0001:0004560C       Translate
 0001:0001164C       TranslateDateFormat
 0001:000173F4       TranslateResult
 0001:0002F258       TReader.BeginReferences
 0001:0002F2C0       TReader.CheckValue
 0001:000315AC       TReader.CopyValue
 0001:0002F318       TReader.DefineBinaryProperty
 0001:0002F2E4       TReader.DefineProperty
 0001:0002F21C       TReader.Destroy
 0001:0002F528       TReader.DoFixupReferences
 0001:0002F3F4       TReader.EndOfList
 0001:0002F408       TReader.EndReferences
 0001:0002F424       TReader.Error
 0001:00031864       TReader.FindAncestorComponent
 0001:0003195C       TReader.FindComponentClass
 0001:0002F444       TReader.FindMethod
 0001:0002F648       TReader.FixupReferences
 0001:0002F680       TReader.FlushBuffer
 0001:0002F6A4       TReader.FreeFixups
 0001:0002F6E0       TReader.GetFieldClass
 0001:0002F774       TReader.GetPosition
 0001:0002F78C       TReader.NextValue
 0001:0002F79C       TReader.PropertyError
 0001:0002F7B0       TReader.Read
 0001:0002F838       TReader.ReadBoolean
 0001:0002F7FC       TReader.ReadBuffer
 0001:0002F84C       TReader.ReadChar
 0001:0002F8A4       TReader.ReadCollection
 0001:0002FC24       TReader.ReadComponent
 0001:00030D98       TReader.ReadComponents
 0001:0002FFBC       TReader.ReadCurrency
 0001:0002FDFC       TReader.ReadData
 0001:0002FE6C       TReader.ReadDataInner
 0001:00030008       TReader.ReadDate
 0001:0002FF3C       TReader.ReadFloat
 0001:00030048       TReader.ReadIdent
 0001:000301B4       TReader.ReadInt64
 0001:00030148       TReader.ReadInteger
 0001:000301F8       TReader.ReadListBegin
 0001:00030200       TReader.ReadListEnd
 0001:00030208       TReader.ReadPrefix
 0001:00030364       TReader.ReadProperty
 0001:000306E8       TReader.ReadPropValue
 0001:00030A50       TReader.ReadRootComponent
 0001:00030E80       TReader.ReadSet
 0001:00030F3C       TReader.ReadSignature
 0001:0002FF7C       TReader.ReadSingle
 0001:00030F60       TReader.ReadStr
 0001:00030F9C       TReader.ReadString
 0001:0003113C       TReader.ReadValue
 0001:00031BD8       TReader.ReadVariant
 0001:00031058       TReader.ReadWideString
 0001:0003191C       TReader.ReferenceName
 0001:00031934       TReader.SetName
 0001:00031150       TReader.SetPosition
 0001:000319D0       TReader.SkipBytes
 0001:000317BC       TReader.SkipComponent
 0001:00031774       TReader.SkipProperty
 0001:00031170       TReader.SkipSetBody
 0001:0003126C       TReader.SkipValue
 0001:0002B848       TRecall.Create
 0001:0002B898       TRecall.Destroy
 0001:0002B8D4       TRecall.Forget
 0001:0002B8E4       TRecall.Store
 0001:00028568       TRegGroup.AddClass
 0001:00028574       TRegGroup.BestClass
 0001:000285D4       TRegGroup.BestGroup
 0001:00028644       TRegGroup.Create
 0001:000286C0       TRegGroup.Destroy
 0001:00028700       TRegGroup.GetClass
 0001:00028760       TRegGroup.GetClasses
 0001:0002879C       TRegGroup.InGroup
 0001:000287E0       TRegGroup.RegisterClass
 0001:00028888       TRegGroup.RegisterClassAlias
 0001:000288AC       TRegGroup.Registered
 0001:000288C4       TRegGroup.UnregisterClass
 0001:00028928       TRegGroup.UnregisterModuleClasses
 0001:000289CC       TRegGroups.Activate
 0001:00028A18       TRegGroups.Create
 0001:00028A8C       TRegGroups.Destroy
 0001:00028AE8       TRegGroups.FindGroup
 0001:00028B2C       TRegGroups.GetClass
 0001:00028B70       TRegGroups.GroupedWith
 0001:00028C20       TRegGroups.GroupWith
 0001:00028CE8       TRegGroups.Lock
 0001:00028CF4       TRegGroups.RegisterClass
 0001:00028D0C       TRegGroups.RegisterClassAlias
 0001:00028D2C       TRegGroups.Registered
 0001:00028D70       TRegGroups.StartGroup
 0001:00028DC0       TRegGroups.Unlock
 0001:00028DCC       TRegGroups.UnregisterClass
 0001:00028DFC       TRegGroups.UnregisterModuleClasses
 0001:00049FF8       TRegIniFile.Create
 0001:00049FBC       TRegIniFile.Create
 0001:0004A68C       TRegIniFile.DeleteKey
 0001:0004A684       TRegIniFile.EraseSection
 0001:0004A3BC       TRegIniFile.ReadBool
 0001:0004A1CC       TRegIniFile.ReadInteger
 0001:0004A4BC       TRegIniFile.ReadSection
 0001:0004A558       TRegIniFile.ReadSections
 0001:0004A560       TRegIniFile.ReadSectionValues
 0001:0004A050       TRegIniFile.ReadString
 0001:0004A400       TRegIniFile.WriteBool
 0001:0004A2CC       TRegIniFile.WriteInteger
 0001:0004A11C       TRegIniFile.WriteString
 0001:000489CC       TRegistry.ChangeKey
 0001:00048970       TRegistry.CloseKey
 0001:00048908       TRegistry.Create
 0001:000488C4       TRegistry.Create
 0001:00048A08       TRegistry.CreateKey
 0001:00048DC0       TRegistry.DeleteKey
 0001:00048F38       TRegistry.DeleteValue
 0001:00048944       TRegistry.Destroy
 0001:000489F0       TRegistry.GetBaseKey
 0001:0004952C       TRegistry.GetData
 0001:00049150       TRegistry.GetDataInfo
 0001:000491A0       TRegistry.GetDataSize
 0001:000491C8       TRegistry.GetDataType
 0001:000495D4       TRegistry.GetKey
 0001:00048F58       TRegistry.GetKeyInfo
 0001:00048FC0       TRegistry.GetKeyNames
 0001:00049088       TRegistry.GetValueNames
 0001:000495A0       TRegistry.HasSubKeys
 0001:00049920       TRegistry.KeyExists
 0001:000496A4       TRegistry.LoadKey
 0001:00049EC8       TRegistry.MoveKey
 0001:00048AE4       TRegistry.OpenKey
 0001:00048C08       TRegistry.OpenKeyReadOnly
 0001:000494C4       TRegistry.PutData
 0001:00049460       TRegistry.ReadBinaryData
 0001:0004930C       TRegistry.ReadBool
 0001:00049380       TRegistry.ReadCurrency
 0001:00049410       TRegistry.ReadDate
 0001:000493C8       TRegistry.ReadDateTime
 0001:00049338       TRegistry.ReadFloat
 0001:000492D0       TRegistry.ReadInteger
 0001:00049244       TRegistry.ReadString
 0001:00049438       TRegistry.ReadTime
 0001:0004966C       TRegistry.RegistryConnect
 0001:0004998C       TRegistry.RenameValue
 0001:00049818       TRegistry.ReplaceKey
 0001:000497B0       TRegistry.RestoreKey
 0001:000498B8       TRegistry.SaveKey
 0001:00048A04       TRegistry.SetCurrentKey
 0001:000489A0       TRegistry.SetRootKey
 0001:00049730       TRegistry.UnLoadKey
 0001:000495C4       TRegistry.ValueExists
 0001:0004944C       TRegistry.WriteBinaryData
 0001:00049300       TRegistry.WriteBool
 0001:0004936C       TRegistry.WriteCurrency
 0001:000493FC       TRegistry.WriteDate
 0001:000493B4       TRegistry.WriteDateTime
 0001:00049218       TRegistry.WriteExpandString
 0001:00049324       TRegistry.WriteFloat
 0001:000492BC       TRegistry.WriteInteger
 0001:000491EC       TRegistry.WriteString
 0001:00049424       TRegistry.WriteTime
 0001:0004A728       TRegistryIniFile.Create
 0001:0004A764       TRegistryIniFile.Create
 0001:0004B420       TRegistryIniFile.DeleteKey
 0001:0004A7BC       TRegistryIniFile.Destroy
 0001:0004B414       TRegistryIniFile.EraseSection
 0001:0004AC88       TRegistryIniFile.ReadBinaryStream
 0001:0004A814       TRegistryIniFile.ReadDate
 0001:0004A8E8       TRegistryIniFile.ReadDateTime
 0001:0004A9BC       TRegistryIniFile.ReadFloat
 0001:0004AA90       TRegistryIniFile.ReadInteger
 0001:0004B3F0       TRegistryIniFile.ReadSection
 0001:0004B3FC       TRegistryIniFile.ReadSections
 0001:0004B408       TRegistryIniFile.ReadSectionValues
 0001:0004A7EC       TRegistryIniFile.ReadString
 0001:0004ABB4       TRegistryIniFile.ReadTime
 0001:0004B42C       TRegistryIniFile.UpdateFile
 0001:0004B250       TRegistryIniFile.WriteBinaryStream
 0001:0004AE54       TRegistryIniFile.WriteDate
 0001:0004AF0C       TRegistryIniFile.WriteDateTime
 0001:0004AFC4       TRegistryIniFile.WriteFloat
 0001:0004B07C       TRegistryIniFile.WriteInteger
 0001:0004B3D8       TRegistryIniFile.WriteString
 0001:0004B198       TRegistryIniFile.WriteTime
 0001:0002E6F8       TResourceStream.Create
 0001:0002E750       TResourceStream.CreateFromID
 0001:0002E87C       TResourceStream.Destroy
 0001:0002E810       TResourceStream.Initialize
 0001:0002E8B4       TResourceStream.Write
 0001:0000BA2C       Trim
 0001:0000B9DC       Trim
 0001:0000BAB0       TrimLeft
 0001:0000BA7C       TrimLeft
 0001:0003B61C       TrimPunctuation
 0001:0000BB1C       TrimRight
 0001:0000BAE8       TrimRight
 0002:00003840       TrueBoolStrs
 0001:00041DD4       TryConvTypeToFamily
 0001:00041D10       TryConvTypeToFamily
 0001:0000F6B4       TryEncodeDate
 0001:00044C38       TryEncodeDateDay
 0001:00044C7C       TryEncodeDateMonthWeek
 0001:00044B60       TryEncodeDateTime
 0001:00044BAC       TryEncodeDateWeek
 0001:00045280       TryEncodeDayOfWeekInMonth
 0001:0000F56C       TryEncodeTime
 0001:0000F108       TryFloatToCurr
 0001:000107D4       TryFloatToDateTime
 0001:0000166C       TryHarder
 0001:00045444       TryJulianDateToDateTime
 0001:0004558C       TryModifiedJulianDateToDateTime
 0001:000031B4       TryOpenForInput
 0001:00003958       TryOpenForOutput
 0001:00044F94       TryRecodeDateTime
 0001:0000C2E0       TryStrToBool
 0001:00042E84       TryStrToConvUnit
 0001:0000F458       TryStrToCurr
 0001:0001110C       TryStrToDate
 0001:0001123C       TryStrToDateTime
 0001:0000F390       TryStrToFloat
 0001:0000F3BC       TryStrToFloat
 0001:0000F374       TryStrToFloat
 0001:0000C108       TryStrToInt
 0001:0000C1A0       TryStrToInt64
 0001:000111A4       TryStrToTime
 0001:00056BE8       TServerAcceptThread.Create
 0001:00056C2C       TServerAcceptThread.Execute
 0001:00056F24       TServerClientThread.ClientExecute
 0001:00056C48       TServerClientThread.Create
 0001:00056CC0       TServerClientThread.Destroy
 0001:00056D34       TServerClientThread.DoHandleException
 0001:00056D80       TServerClientThread.DoRead
 0001:00056D9C       TServerClientThread.DoTerminate
 0001:00056DB8       TServerClientThread.DoWrite
 0001:00056FF0       TServerClientThread.EndConnect
 0001:00056E00       TServerClientThread.Error
 0001:00056DF0       TServerClientThread.Event
 0001:00056E7C       TServerClientThread.Execute
 0001:00056DDC       TServerClientThread.HandleError
 0001:00056DCC       TServerClientThread.HandleEvent
 0001:00056E14       TServerClientThread.HandleException
 0001:00056CF8       TServerClientThread.ReActivate
 0001:00056FCC       TServerClientThread.StartConnect
 0001:00056138       TServerClientWinSocket.Create
 0001:000561E4       TServerClientWinSocket.Destroy
 0001:00057AE0       TServerSocket.Create
 0001:000565E4       TServerWinSocket.Accept
 0001:000562CC       TServerWinSocket.AddClient
 0001:00056388       TServerWinSocket.AddThread
 0001:00056B2C       TServerWinSocket.ClientConnect
 0001:00056B4C       TServerWinSocket.ClientDisconnect
 0001:000564AC       TServerWinSocket.ClientError
 0001:00056BBC       TServerWinSocket.ClientErrorEvent
 0001:00056458       TServerWinSocket.ClientEvent
 0001:00056B7C       TServerWinSocket.ClientRead
 0001:00056B9C       TServerWinSocket.ClientWrite
 0001:00056218       TServerWinSocket.Create
 0001:0005628C       TServerWinSocket.Destroy
 0001:000566E8       TServerWinSocket.Disconnect
 0001:00056800       TServerWinSocket.DoCreateThread
 0001:000564C8       TServerWinSocket.GetActiveConnections
 0001:000564E4       TServerWinSocket.GetActiveThreads
 0001:00056948       TServerWinSocket.GetClientSocket
 0001:00056A9C       TServerWinSocket.GetClientThread
 0001:000564D0       TServerWinSocket.GetConnections
 0001:00056564       TServerWinSocket.GetIdleThreads
 0001:000569C8       TServerWinSocket.GetServerThread
 0001:00056810       TServerWinSocket.Listen
 0001:00056334       TServerWinSocket.RemoveClient
 0001:00056404       TServerWinSocket.RemoveThread
 0001:0005685C       TServerWinSocket.SetServerType
 0001:000568AC       TServerWinSocket.SetThreadCacheSize
 0001:00056988       TServerWinSocket.ThreadEnd
 0001:000569A8       TServerWinSocket.ThreadStart
 0001:00038B2C       TSimpleEvent.Create
 0001:00014608       TSimpleRWSync.BeginRead
 0001:000145F0       TSimpleRWSync.BeginWrite
 0001:00014580       TSimpleRWSync.Create
 0001:000145C0       TSimpleRWSync.Destroy
 0001:00014614       TSimpleRWSync.EndRead
 0001:000145FC       TSimpleRWSync.EndWrite
 0001:00040E88       TStack.PushItem
 0001:0002DD60       TStream.CopyFrom
 0001:0002DFA4       TStream.FixupResourceHeader
 0001:0002DAC4       TStream.GetPosition
 0001:0002DAF8       TStream.GetSize
 0001:0002DCF0       TStream.ReadBuffer
 0001:0002DE54       TStream.ReadComponent
 0001:0002DF1C       TStream.ReadComponentRes
 0001:0002E01C       TStream.ReadResHeader
 0001:0002DC80       TStream.Seek
 0001:0002DBFC       TStream.Seek
 0001:0002DAE4       TStream.SetPosition
 0001:0002DB44       TStream.SetSize
 0001:0002DB5C       TStream.SetSize
 0001:0002DB48       TStream.SetSize64
 0001:0002DD28       TStream.WriteBuffer
 0001:0002DEB4       TStream.WriteComponent
 0001:0002DF38       TStream.WriteComponentRes
 0001:0002DEC0       TStream.WriteDescendent
 0001:0002DFE8       TStream.WriteDescendentRes
 0001:0002DF40       TStream.WriteResourceHeader
 0001:00037DB8       TStreamAdapter.Clone
 0001:00037D0C       TStreamAdapter.Commit
 0001:00037B0C       TStreamAdapter.CopyTo
 0001:000378D4       TStreamAdapter.Create
 0001:0003791C       TStreamAdapter.Destroy
 0001:00037D24       TStreamAdapter.LockRegion
 0001:00037954       TStreamAdapter.Read
 0001:00037D18       TStreamAdapter.Revert
 0001:00037A24       TStreamAdapter.Seek
 0001:00037AA8       TStreamAdapter.SetSize
 0001:00037D3C       TStreamAdapter.Stat
 0001:00037D30       TStreamAdapter.UnlockRegion
 0001:000379BC       TStreamAdapter.Write
 0001:000469A0       TStringHash.Add
 0001:00046A00       TStringHash.Clear
 0001:00046A48       TStringHash.Create
 0001:00046A98       TStringHash.Destroy
 0001:00046AC4       TStringHash.Find
 0001:00046B0C       TStringHash.HashOf
 0001:00046B40       TStringHash.Modify
 0001:00046B68       TStringHash.Remove
 0001:00046B88       TStringHash.ValueOf
 0001:0002D4B4       TStringList.Add
 0001:0002D4C0       TStringList.AddObject
 0001:0002D524       TStringList.Changed
 0001:0002D540       TStringList.Changing
 0001:0002D55C       TStringList.Clear
 0001:0002DA90       TStringList.CompareStrings
 0001:0002DA58       TStringList.CustomSort
 0001:0002D59C       TStringList.Delete
 0001:0002D458       TStringList.Destroy
 0001:0002D608       TStringList.Exchange
 0001:0002D664       TStringList.ExchangeItems
 0001:0002D688       TStringList.Find
 0001:0002D700       TStringList.Get
 0001:0002D734       TStringList.GetCapacity
 0001:0002D738       TStringList.GetCount
 0001:0002D73C       TStringList.GetObject
 0001:0002D764       TStringList.Grow
 0001:0002D798       TStringList.IndexOf
 0001:0002D7D4       TStringList.Insert
 0001:0002D838       TStringList.InsertItem
 0001:0002D7E4       TStringList.InsertObject
 0001:0002D8B0       TStringList.Put
 0001:0002D90C       TStringList.PutObject
 0001:0002D94C       TStringList.QuickSort
 0001:0002D9E0       TStringList.SetCapacity
 0001:0002DAAC       TStringList.SetCaseSensitive
 0001:0002D9FC       TStringList.SetSorted
 0001:0002DA1C       TStringList.SetUpdateState
 0001:0002DA48       TStringList.Sort
 0001:0002C130       TStrings.Add
 0001:0002C154       TStrings.AddObject
 0001:0002C180       TStrings.AddStrings
 0001:0002C178       TStrings.Append
 0001:0002C238       TStrings.Assign
 0001:0002C2C8       TStrings.BeginUpdate
 0001:0002D44C       TStrings.CompareStrings
 0001:0002C338       TStrings.DefineProperties
 0001:0002C100       TStrings.Destroy
 0001:0002C384       TStrings.EndUpdate
 0001:0002C398       TStrings.Equals
 0001:0002C444       TStrings.Error
 0001:0002C47C       TStrings.Error
 0001:0002C4D4       TStrings.Exchange
 0001:0002C5BC       TStrings.ExtractName
 0001:0002C600       TStrings.GetCapacity
 0001:0002C608       TStrings.GetCommaText
 0001:0002C690       TStrings.GetDelimitedText
 0001:0002D3E4       TStrings.GetDelimiter
 0001:0002C880       TStrings.GetName
 0001:0002C8E0       TStrings.GetObject
 0001:0002D3FC       TStrings.GetQuoteChar
 0001:0002C8E4       TStrings.GetText
 0001:0002C938       TStrings.GetTextStr
 0001:0002CA60       TStrings.GetValue
 0001:0002CAEC       TStrings.IndexOf
 0001:0002CB78       TStrings.IndexOfName
 0001:0002CC40       TStrings.IndexOfObject
 0001:0002CC74       TStrings.InsertObject
 0001:0002CCA4       TStrings.LoadFromFile
 0001:0002CCF8       TStrings.LoadFromStream
 0001:0002CDA4       TStrings.Move
 0001:0002CE54       TStrings.Put
 0001:0002CE84       TStrings.PutObject
 0001:0002CE88       TStrings.ReadData
 0001:0002CF38       TStrings.SaveToFile
 0001:0002CF90       TStrings.SaveToStream
 0001:0002CFEC       TStrings.SetCapacity
 0001:0002CFF0       TStrings.SetCommaText
 0001:0002D284       TStrings.SetDelimitedText
 0001:0002D414       TStrings.SetDelimiter
 0001:0002D430       TStrings.SetQuoteChar
 0001:0002D014       TStrings.SetStringsAdapter
 0001:0002D048       TStrings.SetText
 0001:0002D098       TStrings.SetTextStr
 0001:0002D158       TStrings.SetUpdateState
 0001:0002D15C       TStrings.SetValue
 0001:0002D200       TStrings.WriteData
 0001:0002E568       TStringStream.Create
 0001:0002E5AC       TStringStream.Read
 0001:0002E67C       TStringStream.ReadString
 0001:0002E624       TStringStream.Seek
 0001:0002E6DC       TStringStream.SetSize
 0001:0002E5EC       TStringStream.Write
 0001:0002E6B8       TStringStream.WriteString
 0001:00038A3C       TSynchroObject.Acquire
 0001:00038A40       TSynchroObject.Release
 0001:00036750       TThread.AfterConstruction
 0001:000367F0       TThread.CallOnTerminate
 0001:000367D8       TThread.CheckThreadError
 0001:0003675C       TThread.CheckThreadError
 0001:00036618       TThread.Create
 0001:000366E8       TThread.Destroy
 0001:00036804       TThread.DoTerminate
 0001:00036818       TThread.GetPriority
 0001:000369F4       TThread.Resume
 0001:00036854       TThread.SetPriority
 0001:000369BC       TThread.SetSuspended
 0001:000369D4       TThread.Suspend
 0001:00036880       TThread.Synchronize
 0001:00036A1C       TThread.Terminate
 0001:00036A24       TThread.WaitFor
 0001:0002AB40       TThreadList.Add
 0001:0002ABC8       TThreadList.Clear
 0001:0002AA70       TThreadList.Create
 0001:0002AAC4       TThreadList.Destroy
 0001:0002AC10       TThreadList.LockList
 0001:0002AC24       TThreadList.Remove
 0001:0002AC74       TThreadList.UnlockList
 0001:00014754       TThreadLocalCounter.Close
 0001:00014620       TThreadLocalCounter.Create
 0001:000147DC       TThreadLocalCounter.Delete
 0001:0001465C       TThreadLocalCounter.Destroy
 0001:000146C4       TThreadLocalCounter.HashIndex
 0001:000146DC       TThreadLocalCounter.Open
 0001:00014824       TThreadLocalCounter.Reattach
 0001:00014850       TThreadLocalCounter.Recycle
 0001:000149EC       TThreadLocalCounter2.Delete
 0001:0001490C       TThreadLocalCounter2.Destroy
 0001:0001495C       TThreadLocalCounter2.HashIndex
 0001:00014974       TThreadLocalCounter2.Open
 0001:000149FC       TThreadLocalCounter2.Recycle
 0001:0003ADA8       TTypedComObject.GetClassInfo
 0001:0003ADD0       TTypedComObjectFactory.Create
 0001:0003AF2C       TTypedComObjectFactory.GetInterfaceTypeInfo
 0001:0003AFD4       TTypedComObjectFactory.UpdateRegistry
 0002:00003BCA       tuCelsius
 0002:00003BEA       tuCenturies
 0002:00003BEE       tuDateTime
 0002:00003BDE       tuDays
 0002:00003BE8       tuDecades
 0002:00003BCE       tuFahrenheit
 0002:00003BE2       tuFortnights
 0002:00003BDC       tuHours
 0002:00003BF0       tuJulianDate
 0002:00003BCC       tuKelvin
 0002:00003BEC       tuMillennia
 0002:00003BD6       tuMilliSeconds
 0002:00003BDA       tuMinutes
 0002:00003BF2       tuModifiedJulianDate
 0002:00003BE4       tuMonths
 0002:00003BD0       tuRankine
 0002:00003BD2       tuReaumur
 0002:00003BD8       tuSeconds
 0002:00003BE0       tuWeeks
 0002:00003BE6       tuYears
 0001:0003D2EC       TVCLAutoObject.Create
 0001:0003D330       TVCLAutoObject.Destroy
 0001:0003D36C       TVCLAutoObject.FreeOnRelease
 0001:0003D374       TVCLAutoObject.Initialize
 0001:0003D3AC       TVCLAutoObject.Invoke
 0001:0003D3E8       TVCLAutoObject.ObjQueryInterface
 0001:00057378       TWinSocketStream.Create
 0001:000573F4       TWinSocketStream.Destroy
 0001:00057488       TWinSocketStream.Read
 0001:00057744       TWinSocketStream.Seek
 0001:00057424       TWinSocketStream.WaitForData
 0001:000575EC       TWinSocketStream.Write
 0002:0000005C       two2neg32
 0002:0000033C       TwoDigitYearCenturyWindow
 0001:00031E10       TWriter.AddAncestor
 0001:00031E44       TWriter.DefineBinaryProperty
 0001:00031E1C       TWriter.DefineProperty
 0001:00031DE4       TWriter.Destroy
 0001:00031E80       TWriter.FlushBuffer
 0001:00031E70       TWriter.GetPosition
 0001:00031E88       TWriter.SetPosition
 0001:00031EC4       TWriter.SetRoot
 0001:00031EDC       TWriter.Write
 0001:00031F28       TWriter.WriteBinary
 0001:00031FC8       TWriter.WriteBoolean
 0001:00031FB0       TWriter.WriteBuffer
 0001:00031FDC       TWriter.WriteChar
 0001:0003202C       TWriter.WriteCollection
 0001:0003211C       TWriter.WriteComponent
 0001:00032668       TWriter.WriteCurrency
 0001:000321F8       TWriter.WriteData
 0001:0003268C       TWriter.WriteDate
 0001:000325F8       TWriter.WriteDescendent
 0001:00032620       TWriter.WriteFloat
 0001:000326B0       TWriter.WriteIdent
 0001:000327E8       TWriter.WriteInteger
 0001:00032774       TWriter.WriteInteger
 0001:00032840       TWriter.WriteListBegin
 0001:00032848       TWriter.WriteListEnd
 0001:00033D00       TWriter.WriteMinStr
 0001:00032850       TWriter.WritePrefix
 0001:00032894       TWriter.WriteProperties
 0001:0003373C       TWriter.WriteProperty
 0001:00033C4C       TWriter.WritePropName
 0001:00033CA0       TWriter.WriteRootComponent
 0001:00033CA8       TWriter.WriteSignature
 0001:00032644       TWriter.WriteSingle
 0001:00033CB8       TWriter.WriteStr
 0001:00033D98       TWriter.WriteString
 0001:00033EA0       TWriter.WriteValue
 0001:00033854       TWriter.WriteVariant
 0001:00033DEC       TWriter.WriteWideString
 0001:00008F7C       Types
 0001:00023668       TypInfo
 0001:000087DC       UCS4StringToWideString
 0001:00020B44       Unassigned
 0001:00000854       UnhandledExceptionFilter
 0001:000082C8       UnicodeToUtf8
 0001:000082E4       UnicodeToUtf8
 0001:00001138       UninitAllocator
 0001:0005AC98       UninitializeFlatSB
 0001:00008A4C       UninitializeModule
 0001:00008E64       UnionRect
 0001:00005D64       UniqueString
 0001:00005D54       UniqueString
 0001:00015884       UniUnimplemented
 0001:000455E0       UnixToDateTime
 0001:00013F70       UnloadPackage
 0001:00009478       UnlockResource
 0001:00029264       UnRegisterClass
 0001:00009464       UnregisterClass
 0001:000292B0       UnRegisterClasses
 0001:00042934       UnregisterConversionFamily
 0001:000427D8       UnregisterConversionType
 0001:000298D4       UnregisterFindGlobalComponentProc
 0001:00029690       UnregisterIntegerConsts
 0001:00007FBC       UnregisterModule
 0001:000292E4       UnRegisterModuleClasses
 0001:00005208       UnsetExceptionHandler
 0001:000026E0       UpCase
 0001:0000B4EC       UpperCase
 0001:0005AAEC       UrlMon
 0002:00003E6C       User32Dll
 0001:000085CC       UTF8Decode
 0001:00008520       UTF8Encode
 0001:000086C0       Utf8ToAnsi
 0001:000083C0       Utf8ToUnicode
 0001:000083DC       Utf8ToUnicode
 0002:00000B00       UtilWindowClass
 0001:0000F4B8       ValidateTimeStamp
 0002:00000BBC       Values
 0002:00000BB4       Values
 0001:00015D54       VarAdd
 0001:00015DFC       VarAnd
 0001:000177D4       VarArrayClear
 0001:00017B70       VarArrayCopyForEach
 0001:0001EFA4       VarArrayCreate
 0001:000173A0       VarArrayCreateError
 0001:0001F120       VarArrayDimCount
 0001:0001F360       VarArrayGet
 0001:0001F16C       VarArrayHighBound
 0001:0001F190       VarArrayLock
 0001:0001F148       VarArrayLowBound
 0001:0001F04C       VarArrayOf
 0001:0001F4CC       VarArrayPut
 0001:0001F1C8       VarArrayRef
 0001:0001F1B0       VarArrayUnlock
 0001:000508E4       VarAsComplex
 0001:0004E4A8       VarAsConvert
 0001:0004E474       VarAsConvert
 0001:0001ED44       VarAsError
 0001:0001E808       VarAsType
 0001:00015EF0       VarBoolFromStr
 0001:00015F70       VarBstrFromBool
 0001:00015F10       VarBstrFromCy
 0001:00015F40       VarBstrFromDate
 0001:000180B4       VarCastAsAny
 0001:000181B8       VarCastAsDispatch
 0001:00018204       VarCastAsInterface
 0001:00018120       VarCastAsOleStr
 0001:0001816C       VarCastAsString
 0001:00017078       VarCastError
 0001:000170CC       VarCastError
 0001:000182C8       VarCastRare
 0001:00018250       VarCastViaOS
 0001:0001E9C0       VarCheckEmpty
 0001:00017950       VarClearDeep
 0001:00015D34       VarCmp
 0001:0005182C       VarCmplx
 0001:0001DC60       VarCompare
 0001:0001D37C       VarCompareAny
 0001:0001D840       VarCompareRare
 0001:0001D6A8       VarCompareSimple
 0001:0001EC28       VarCompareValue
 0001:000508C0       VarComplex
 0001:000509BC       VarComplexAbs
 0001:0005095C       VarComplexAbsSqr
 0001:00050A1C       VarComplexAngle
 0001:00050DFC       VarComplexArcCos
 0001:000513C8       VarComplexArcCosH
 0001:00050F30       VarComplexArcCot
 0001:000515FC       VarComplexArcCotH
 0001:00050FF8       VarComplexArcCsc
 0001:000516C4       VarComplexArcCscH
 0001:00050F94       VarComplexArcSec
 0001:00051660       VarComplexArcSecH
 0001:00050E50       VarComplexArcSin
 0001:0005146C       VarComplexArcSinH
 0001:00050EC0       VarComplexArcTan
 0001:00051510       VarComplexArcTanH
 0001:00050A7C       VarComplexConjugate
 0001:00050C10       VarComplexCos
 0001:0005105C       VarComplexCosH
 0001:00050C7C       VarComplexCot
 0001:00051248       VarComplexCotH
 0001:000508A0       VarComplexCreate
 0001:00050874       VarComplexCreate
 0001:00050848       VarComplexCreate
 0001:00050824       VarComplexCreate
 0001:00050808       VarComplexCreateInto
 0001:00050D7C       VarComplexCsc
 0001:00051348       VarComplexCscH
 0001:00050AC4       VarComplexExp
 0001:00051794       VarComplexFromPolar
 0001:00050AA0       VarComplexInverse
 0001:00050AE8       VarComplexLn
 0001:00050B9C       VarComplexPower
 0001:00050CFC       VarComplexSec
 0001:000512C8       VarComplexSecH
 0001:00050918       VarComplexSimplify
 0001:00050C34       VarComplexSin
 0001:00051114       VarComplexSinH
 0001:00050B0C       VarComplexSqr
 0001:00050B30       VarComplexSqrt
 0001:00050C58       VarComplexTan
 0001:000511CC       VarComplexTanH
 0001:00050B78       VarComplexTimesNegI
 0001:00050B54       VarComplexTimesPosI
 0001:00051728       VarComplexToPolar
 0001:0004EF34       VarConv
 0001:0004E450       VarConvert
 0001:0004E410       VarConvertCreate
 0001:0004E3FC       VarConvertCreate
 0001:0004E3CC       VarConvertCreateInto
 0001:00017E98       VarCopyByRef
 0001:00017D3C       VarCopyCopyProc
 0001:00017D44       VarCopyDeep
 0001:00018084       VarCopyNoInd
 0001:00017E5C       VarCopyNoIndCopyProc
 0001:00017E64       VarCopyNoIndDeep
 0001:00017E54       VarCopyNoIndOleStr
 0001:00017E34       VarCopyNoIndViaOS
 0001:00015ED0       VarCyFromStr
 0001:00015EB0       VarDateFromStr
 0001:0003C6F4       VarDispInvoke
 0002:000038C8       VarDispProc
 0001:00015DA8       VarDiv
 0001:0001EB64       VarEnsureRange
 0001:00015790       VarExceptionToResult
 0001:0001EB00       VarFromDateTime
 0001:00015E50       VarI4FromStr
 0001:0003F470       Variance
 0001:0001584C       VariantChangeType
 0001:00015CE0       VariantChangeTypeEx
 0001:00015834       VariantClear
 0001:0001583C       VariantCopy
 0001:00015844       VariantCopyInd
 0001:0001582C       VariantInit
 0002:00003668       VariantManager
 0001:00020BD8       Variants
 0001:00006D24       VariantSystemDefaultVarClear
 0001:00006D1C       VariantSystemUndefinedError
 0001:00015DC4       VarIDiv
 0001:0001EB38       VarInRange
 0001:000171BC       VarInvalidNullOp
 0001:00017168       VarInvalidOp
 0001:0001F210       VarIsArray
 0001:0001F208       VarIsArray
 0001:0001ED4C       VarIsByRef
 0001:0001E864       VarIsClear
 0001:000508CC       VarIsComplex
 0001:0004E45C       VarIsConvert
 0001:0001E8E4       VarIsCustom
 0001:0001E9AC       VarIsEmpty
 0001:0001ECE0       VarIsEmptyParam
 0001:0001ED38       VarIsError
 0001:0001ED10       VarIsError
 0001:0001E938       VarIsFloat
 0001:0001EA24       VarIsNull
 0001:0001E970       VarIsNumeric
 0001:0001E918       VarIsOrdinal
 0001:0001E998       VarIsStr
 0001:0001E82C       VarIsType
 0001:0001E814       VarIsType
 0001:00015DE0       VarMod
 0001:00015D8C       VarMul
 0001:00015D04       VarNeg
 0001:00015D1C       VarNot
 0001:0001C57C       VarOpRare
 0001:00015E18       VarOr
 0001:00017210       VarOverflowError
 0001:00015E70       VarR4FromStr
 0001:00015E90       VarR8FromStr
 0001:000172AC       VarRangeCheckError
 0001:00017628       VarResultCheck
 0001:0001761C       VarResultCheck
 0001:0001EBB0       VarSameValue
 0001:0001C4C8       VarStrCat
 0001:000180AC       VarStringToOleStr
 0001:00015D70       VarSub
 0001:0001EE1C       VarSupports
 0001:0001ED54       VarSupports
 0001:00019700       VarToBoolAny
 0001:00019600       VarToBoolAsString
 0001:00019764       VarToBoolCustom
 0001:000196C4       VarToBoolViaOS
 0001:0001A8CC       VarToCurrencyAny
 0001:0001A828       VarToCurrencyAsDouble
 0001:0001A770       VarToCurrencyAsString
 0001:0001A930       VarToCurrencyCustom
 0001:0001A884       VarToCurrencyViaOS
 0001:0001A370       VarToDateAny
 0001:0001A2CC       VarToDateAsDouble
 0001:0001A1E4       VarToDateAsString
 0001:0001A3D4       VarToDateCustom
 0001:0001EB24       VarToDateTime
 0001:0001A328       VarToDateViaOS
 0001:00019C0C       VarToDoubleAny
 0001:00019B04       VarToDoubleAsString
 0001:00019C70       VarToDoubleCustom
 0001:00019BC4       VarToDoubleViaOS
 0001:00019104       VarToInt64Any
 0001:0001900C       VarToInt64AsString
 0001:00019170       VarToInt64Custom
 0001:00018F68       VarToInt64ViaOS
 0001:000186B4       VarToIntAny
 0001:000185CC       VarToIntAsString
 0001:00018718       VarToIntCustom
 0001:0001867C       VarToIntViaOS
 0001:0001AF38       VarToLStrAny
 0001:0001AF9C       VarToLStrCustom
 0001:0001AE70       VarToLStrViaOS
 0001:0001EA38       VarToStr
 0001:0001EA50       VarToStrDef
 0001:0001EA7C       VarToWideStr
 0001:0001EAD4       VarToWideStrDef
 0001:0001B668       VarToWStrAny
 0001:0001B6CC       VarToWStrCustom
 0001:0001B5B4       VarToWStrViaOS
 0001:0001E7F4       VarType
 0001:0001E684       VarTypeAsText
 0001:0001E8D8       VarTypeIsCustom
 0001:0001E92C       VarTypeIsFloat
 0001:0001E94C       VarTypeIsNumeric
 0001:0001E8F8       VarTypeIsOrdinal
 0001:0001E984       VarTypeIsStr
 0001:0001F238       VarTypeIsValidArrayType
 0001:0001F258       VarTypeIsValidElementType
 0001:00016308       VarUtils
 0001:00015E34       VarXor
 0001:0003D63C       VCLCom
 0001:0000C1C0       VerifyBoolStrArray
 0001:000009B8       VirtualAlloc
 0001:000092BC       VirtualAlloc
 0001:000009C0       VirtualFree
 0001:000092C4       VirtualQuery
 0001:0000094C       VirtualQuery
 0002:00003B68       vuAcreFeet
 0002:00003B6A       vuAcreInches
 0002:00003B5C       vuCentiLiters
 0002:00003B6E       vuCordFeet
 0002:00003B6C       vuCords
 0002:00003B46       vuCubicCentimeters
 0002:00003B4C       vuCubicDecameters
 0002:00003B48       vuCubicDecimeters
 0002:00003B54       vuCubicFeet
 0002:00003B4E       vuCubicHectometers
 0002:00003B52       vuCubicInches
 0002:00003B50       vuCubicKilometers
 0002:00003B4A       vuCubicMeters
 0002:00003B58       vuCubicMiles
 0002:00003B44       vuCubicMillimeters
 0002:00003B56       vuCubicYards
 0002:00003B62       vuDecaLiters
 0002:00003B74       vuDecasteres
 0002:00003B5E       vuDeciLiters
 0002:00003B70       vuDecisteres
 0002:00003B8E       vuDryBuckets
 0002:00003B90       vuDryBushels
 0002:00003B86       vuDryGallons
 0002:00003B8C       vuDryPecks
 0002:00003B8A       vuDryPints
 0002:00003B88       vuDryQuarts
 0002:00003B7C       vuFluidCups
 0002:00003B76       vuFluidGallons
 0002:00003B7E       vuFluidGills
 0002:00003B80       vuFluidOunces
 0002:00003B7A       vuFluidPints
 0002:00003B78       vuFluidQuarts
 0002:00003B82       vuFluidTablespoons
 0002:00003B84       vuFluidTeaspoons
 0002:00003B64       vuHectoLiters
 0002:00003B66       vuKiloLiters
 0002:00003B60       vuLiters
 0002:00003B5A       vuMilliLiters
 0002:00003B72       vuSteres
 0002:00003BA0       vuUKBuckets
 0002:00003BA2       vuUKBushels
 0002:00003B92       vuUKGallons
 0002:00003B9A       vuUKGills
 0002:00003B9C       vuUKOunces
 0002:00003B9E       vuUKPecks
 0002:00003B98       vuUKPints
 0002:00003B94       vuUKPottles
 0002:00003B96       vuUKQuarts
 0001:000092CC       WaitForSingleObject
 0002:00000A44       WakeMainThread
 0001:00005964       WCharFromChar
 0001:000439B0       WeekOf
 0001:00043F0C       WeekOfTheMonth
 0001:00043F34       WeekOfTheMonth
 0001:00043E08       WeekOfTheYear
 0001:00043DE4       WeekOfTheYear
 0001:00044414       WeeksBetween
 0001:0004386C       WeeksInAYear
 0001:00043854       WeeksInYear
 0001:0004459C       WeekSpan
 0002:0000058C       WesternGroups
 0001:0002539C       WHashValOfLHashVal
 0001:00006C80       WideCharLenToString
 0001:00006C90       WideCharLenToStrVar
 0001:00000944       WideCharToMultiByte
 0001:00006C78       WideCharToString
 0001:00006C88       WideCharToStrVar
 0001:0000B8D0       WideCompareStr
 0001:0000B954       WideCompareText
 0001:0000E678       WideFmtStr
 0001:0000E744       WideFormat
 0001:0000E200       WideFormatBuf
 0001:0000E180       WideFormatError
 0001:0000B808       WideLowerCase
 0001:0000B93C       WideSameStr
 0001:0000B9C4       WideSameText
 0001:00008784       WideStringToUCS4String
 0001:0000B7D4       WideUpperCase
 0002:00000334       Win32BuildNumber
 0001:000142C8       Win32Check
 0002:00000338       Win32CSDVersion
 0002:0000032C       Win32MajorVersion
 0002:00000330       Win32MinorVersion
 0002:00000328       Win32Platform
 0001:000094FC       Windows
 0001:0005AAB4       WinInet
 0001:00053648       WinSock
 0001:0005F2AC       WinSpool
 0001:0005F2E4       WinSvc
 0001:00044310       WithinPastDays
 0001:00044334       WithinPastHours
 0001:000443AC       WithinPastMilliSeconds
 0001:0004435C       WithinPastMinutes
 0001:000442C8       WithinPastMonths
 0001:00044384       WithinPastSeconds
 0001:000442EC       WithinPastWeeks
 0001:000442A4       WithinPastYears
 0001:000092EC       WNetCloseEnum
 0001:000092F4       WNetEnumResource
 0001:000092FC       WNetGetUniversalName
 0001:00009304       WNetOpenEnum
 0002:00000C04       WordDelimiters
 0001:0001379C       WrapText
 0001:00013558       WrapText
 0001:00029E88       WriteCollection
 0001:00032AF8       WriteCollectionProp
 0001:00029DDC       WriteComponentResFile
 0001:00005600       WriteErrorMessage
 0001:0000085C       WriteFile
 0001:000092D4       WriteFile
 0001:00002B70       WriteFileX
 0001:00032D24       WriteFloatProp
 0001:0003489C       WriteIndent
 0001:00032DC0       WriteInt64Prop
 0001:000333E8       WriteInterfaceProp
 0001:00032A8C       WriteIntProp
 0001:0003358C       WriteMethodProp
 0001:000330E4       WriteObjectProp
 0001:00032BF8       WriteOrdProp
 0001:000092DC       WritePrivateProfileString
 0001:000329A4       WritePropPath
 0001:00047E40       WriteScan
 0001:000329F8       WriteSet
 0001:000348C8       WriteStr
 0001:00032E90       WriteStrProp
 0001:000336CC       WriteVariantProp
 0001:000535E8       WSAAsyncGetHostByName
 0001:000535F0       WSAAsyncGetServByName
 0001:000535E0       WSAAsyncSelect
 0001:000535F8       WSACancelAsyncRequest
 0001:00053610       WSACleanup
 0002:00003C20       WSAData
 0001:00053600       WSAGetLastError
 0001:00053608       WSAStartup
 0001:000060A4       WStrError
 0001:000060C4       WStrSet
 0001:0005D298       xEnumDisplayMonitors
 0001:0005D01C       xGetMonitorInfo
 0001:0005D0F0       xGetMonitorInfoA
 0001:0005D1C4       xGetMonitorInfoW
 0001:0005CF84       xMonitorFromPoint
 0001:0005CE5C       xMonitorFromRect
 0001:0005CEEC       xMonitorFromWindow
 0001:00043968       YearOf
 0001:000443D4       YearsBetween
 0001:00044544       YearSpan
 0001:000438C4       Yesterday
 0001:000179E0       _DispInvoke
 0001:000176E0       _DispInvokeError
 0002:00003E18       _FlatSB_GetScrollProp
 0002:00003E1C       _FlatSB_SetScrollProp
 0001:0005CDD4       _GetSystemMetrics
 0002:00003E20       _InitializeFlatSB
 0001:0001BF54       _OleVarFromInt
 0001:0001C26C       _OleVarFromLStr
 0001:0001C2BC       _OleVarFromPStr
 0001:0001C378       _OleVarFromVar
 0002:00003E24       _UninitializeFlatSB
 0001:0001E500       _VarAddRef
 0001:0001F294       _VarArrayGet
 0001:0001F384       _VarArrayPut
 0001:0001F0A0       _VarArrayRedim
 0001:00018334       _VarCast
 0001:00018560       _VarCastOle
 0001:000179CC       _VarClear
 0001:0001DCE0       _VarCmp
 0001:00017DF0       _VarCopy
 0001:00018070       _VarCopyNoInd
 0001:0001C0E8       _VarFromBool
 0001:0001BF74       _VarFromByte
 0001:0001C138       _VarFromCurr
 0001:0001C090       _VarFromCurrency
 0001:0001C0BC       _VarFromDate
 0001:0001C22C       _VarFromDisp
 0001:0001C064       _VarFromDouble
 0001:0001C258       _VarFromDynArray
 0001:0001BEF4       _VarFromInt
 0001:0001C014       _VarFromInt64
 0001:0001BF34       _VarFromInteger
 0001:0001C200       _VarFromIntf
 0001:0001BFB4       _VarFromLongWord
 0001:0001C14C       _VarFromLStr
 0001:0001C178       _VarFromPStr
 0001:0001C110       _VarFromReal
 0001:0001BFD4       _VarFromShortInt
 0001:0001C040       _VarFromSingle
 0001:0001BFF4       _VarFromSmallInt
 0001:0001C124       _VarFromTDateTime
 0001:0001BF94       _VarFromWord
 0001:0001C1C8       _VarFromWStr
 0001:0001DDD8       _VarNeg
 0001:0001E280       _VarNot
 0001:00017734       _VarNull
 0001:0001D2EC       _VarOp
 0001:0001808C       _VarStringToOleStr
 0001:000197B0       _VarToBool
 0001:00019AF8       _VarToBoolWithFix
 0001:00018C08       _VarToByte
 0001:0001A97C       _VarToCurrency
 0001:0001A420       _VarToDate
 0001:0001BE38       _VarToDisp
 0001:00019CBC       _VarToDouble
 0001:0001BEE4       _VarToDynArray
 0001:0001A038       _VarToExtended
 0001:000191BC       _VarToInt64
 0001:0001875C       _VarToInteger
 0001:0001BD6C       _VarToIntf
 0001:00018E80       _VarToLongWord
 0001:0001B020       _VarToLStr
 0001:0001B564       _VarToPStr
 0001:00018B58       _VarToShortInt
 0001:0001A054       _VarToSingle
 0001:00018CB0       _VarToSmallInt
 0001:00018DA8       _VarToWord
 0001:0001B794       _VarToWStr
 0001:0001EF58       _Write0Variant
 0001:0001EEF4       _WriteVariant


  Address         Publics by Value

 0002:BFF9F014       TlsLast
 0001:000007E8       TextStart
 0001:000007EC       CloseHandle
 0001:000007F4       CreateFileA
 0001:000007FC       DeleteFileA
 0001:00000804       GetFileType
 0001:0000080C       GetSystemTime
 0001:00000814       GetFileSize
 0001:0000081C       GetStdHandle
 0001:00000824       MoveFileA
 0001:0000082C       RaiseException
 0001:00000834       ReadFile
 0001:0000083C       RtlUnwind
 0001:00000844       SetEndOfFile
 0001:0000084C       SetFilePointer
 0001:00000854       UnhandledExceptionFilter
 0001:0000085C       WriteFile
 0001:00000864       CharNext
 0001:0000086C       CreateThread
 0001:00000874       ExitThread
 0001:0000087C       ExitProcess
 0001:00000884       MessageBox
 0001:0000088C       CreateDirectory
 0001:00000894       FindClose
 0001:0000089C       FindFirstFile
 0001:000008A4       FreeLibrary
 0001:000008AC       GetCommandLine
 0001:000008B4       GetCurrentDirectory
 0001:000008BC       GetLastError
 0001:000008C4       GetLocaleInfo
 0001:000008CC       GetModuleFileName
 0001:000008D4       GetModuleHandle
 0001:000008DC       GetProcAddress
 0001:000008E4       GetStartupInfo
 0001:000008EC       GetThreadLocale
 0001:000008F4       LoadLibraryEx
 0001:000008FC       LoadString
 0001:00000904       lstrcpyn
 0001:0000090C       @strlen
 0001:00000914       MultiByteToWideChar
 0001:0000091C       RegCloseKey
 0001:00000924       RegOpenKeyEx
 0001:0000092C       RegQueryValueEx
 0001:00000934       RemoveDirectory
 0001:0000093C       SetCurrentDirectory
 0001:00000944       WideCharToMultiByte
 0001:0000094C       VirtualQuery
 0001:00000954       SysAllocStringLen
 0001:0000095C       SysReAllocStringLen
 0001:00000964       SysFreeString
 0001:0000096C       InterlockedIncrement
 0001:00000974       InterlockedDecrement
 0001:0000097C       GetCurrentThreadId
 0001:00000984       GetCmdShow
 0001:000009A8       LocalAlloc
 0001:000009B0       LocalFree
 0001:000009B8       VirtualAlloc
 0001:000009C0       VirtualFree
 0001:000009C8       InitializeCriticalSection
 0001:000009D0       EnterCriticalSection
 0001:000009D8       LeaveCriticalSection
 0001:000009E0       DeleteCriticalSection
 0001:000009E8       GetBlockDesc
 0001:00000A38       MakeEmpty
 0001:00000A40       AddBlockAfter
 0001:00000A70       DeleteBlock
 0001:00000A88       MergeBlockAfter
 0001:00000AF8       RemoveBlock
 0001:00000B8C       GetSpace
 0001:00000BF0       GetSpaceAt
 0001:00000C68       FreeSpace
 0001:00000D20       Commit
 0001:00000DB4       Decommit
 0001:00000E34       GetCommitted
 0001:00000EC4       GetCommittedAt
 0001:00000FE8       FreeCommitted
 0001:00001074       InitAllocator
 0001:00001138       UninitAllocator
 0001:00001218       DeleteFree
 0001:0000127C       FindCommitted
 0001:000012AC       FillBeforeGap
 0001:000012DC       InternalFreeMem
 0001:00001300       FillAfterGap
 0001:00001328       FillerSizeBeforeGap
 0001:00001398       FillerSizeAfterGap
 0001:000013D0       DecommitFree
 0001:00001480       InsertFree
 0001:00001508       FreeCurAlloc
 0001:00001554       MergeCommit
 0001:000015E0       NewCommit
 0001:0000160C       NewCommitAt
 0001:00001640       SearchSmallBlocks
 0001:0000166C       TryHarder
 0001:00001760       SysGetMem
 0001:000018F0       SysFreeMem
 0001:00001A94       ResizeInPlace
 0001:00001C64       SysReallocMem
 0001:00001D28       BlockSum
 0001:00001D3C       GetHeapStatus
 0001:00001FC4       @GetMem
 0001:00001FE4       @FreeMem
 0001:00002004       @ReallocMem
 0001:00002054       GetMemoryManager
 0001:00002070       SetMemoryManager
 0001:0000208C       IsMemoryManagerSet
 0001:000020BC       ExceptObject
 0001:000020DC       ExceptAddr
 0001:000020FC       AcquireExceptionObject
 0001:00002130       ReleaseExceptionObject
 0001:00002134       RaiseList
 0001:00002140       SetRaiseList
 0001:00002158       RunErrorAt
 0001:00002164       ErrorAt
 0001:000021B0       Error
 0001:000021BC       @_IOTest
 0001:000021DC       SetInOutRes
 0001:000021EC       InOutError
 0001:000021F8       ChDir
 0001:0000220C       ChDir
 0001:00002224       @Copy
 0001:00002268       @Delete
 0001:00002298       @LGetDir
 0001:00002310       @SGetDir
 0001:00002380       @Insert
 0001:000023E8       IOResult
 0001:00002408       MkDir
 0001:0000241C       MkDir
 0001:00002434       Move
 0001:00002474       GetParamStr
 0001:00002560       ParamCount
 0001:000025C0       ParamStr
 0001:00002620       @Pos
 0001:00002660       @SetLength
 0001:00002664       @SetString
 0001:00002678       Randomize
 0001:000026B4       RmDir
 0001:000026C8       RmDir
 0001:000026E0       UpCase
 0001:000026EC       Set8087CW
 0001:000026FC       Get8087CW
 0001:00002704       @COS
 0001:00002714       @EXP
 0001:0000272C       @INT
 0001:0000274C       @SIN
 0001:0000275C       @FRAC
 0001:00002780       @ROUND
 0001:0000278C       @TRUNC
 0001:000027B0       @AbstractError
 0001:000027CC       OpenText
 0001:00002824       @ResetText
 0001:00002830       @RewritText
 0001:0000283C       @Append
 0001:00002848       TextIn
 0001:00002884       FileNOPProc
 0001:00002888       TextOut
 0001:000028C4       InternalClose
 0001:000028D4       TextClose
 0001:000028F4       TextOpen
 0001:00002AA0       @Assign
 0001:00002B08       InternalFlush
 0001:00002B50       Flush
 0001:00002B5C       @Flush
 0001:00002B68       ReadFileX
 0001:00002B70       WriteFileX
 0001:00002B78       BlockIO
 0001:00002C04       @BlockRead
 0001:00002C24       @BlockWrite
 0001:00002C44       @Close
 0001:00002C9C       @PStrCat
 0001:00002CC4       @PStrNCat
 0001:00002CF4       @PStrCpy
 0001:00002D00       @PStrNCpy
 0001:00002D1C       @PStrCmp
 0001:00002DA0       @AStrCmp
 0001:00002E10       @EofFile
 0001:00002E2C       @EofText
 0001:00002E64       @Eoln
 0001:00002EBC       @Erase
 0001:00002EF4       @FSafeDivideR
 0001:00002EFC       @FSafeDivide
 0001:00003060       @FilePos
 0001:000030B0       @FileSize
 0001:000030FC       @FillChar
 0001:0000311C       Mark
 0001:00003124       @RandInt
 0001:00003140       @RandExt
 0001:00003168       @ReadRec
 0001:000031B4       TryOpenForInput
 0001:000031F0       @ReadChar
 0001:0000325C       @ReadLong
 0001:000032B4       ReadLine
 0001:00003328       @ReadString
 0001:00003334       @ReadCString
 0001:00003340       @ReadLString
 0001:000033AC       IsValidMultibyteChar
 0001:000033D0       @ReadWChar
 0001:00003428       @ReadWCString
 0001:0000349C       @ReadWString
 0001:000034E8       @ReadExt
 0001:00003540       @ReadLn
 0001:00003570       @Rename
 0001:000035CC       Release
 0001:000035D4       @CloseFile
 0001:000035FC       OpenFile
 0001:000036DC       @ResetFile
 0001:000036F8       @RewritFile
 0001:00003704       @Seek
 0001:00003738       @SeekEof
 0001:00003758       @SeekEoln
 0001:00003784       @SetTextBuf
 0001:000037AC       @StrLong
 0001:0000380C       @Str0Long
 0001:00003818       @Truncate
 0001:00003844       @ValLong
 0001:00003910       @WriteRec
 0001:00003958       TryOpenForOutput
 0001:0000399C       @WriteBytes
 0001:000039F0       @WriteSpaces
 0001:00003A6C       @Write0Char
 0001:00003AA8       @WriteChar
 0001:00003ACC       @WriteBool
 0001:00003AE0       @Write0Bool
 0001:00003AE8       @WriteLong
 0001:00003B28       @Write0Long
 0001:00003B30       @Write0String
 0001:00003B3C       @WriteString
 0001:00003B64       @Write0CString
 0001:00003B6C       @WriteCString
 0001:00003B9C       @Write2Ext
 0001:00003BD0       @Write1Ext
 0001:00003BDC       @Write0Ext
 0001:00003BEC       @WriteLn
 0001:00003C34       @_CToPasStr
 0001:00003C40       @_CLenToPasStr
 0001:00003C64       @_ArrayToPasStr
 0001:00003C7C       @_PasToCStr
 0001:00003C9C       @SetElem
 0001:00003CC0       @SetRange
 0001:00003D18       @SetEq
 0001:00003D2C       @SetLe
 0001:00003D3C       @SetIntersect
 0001:00003D48       @SetIntersect3
 0001:00003D60       @SetUnion
 0001:00003D6C       @SetUnion3
 0001:00003D84       @SetSub
 0001:00003D94       @SetSub3
 0001:00003DB0       @SetExpand
 0001:00003DD0       @EmitDigits
 0001:00003E40       @ScaleExt
 0001:00003E84       @Str2Ext
 0001:00004040       @Str0Ext
 0001:00004050       @Str1Ext
 0001:0000405C       @ValExt
 0001:00004160       FPower10
 0001:00004168       @Pow10
 0001:00004448       @Real2Ext
 0001:00004478       @Ext2Real
 0001:000044C4       @ObjSetup
 0001:00004524       @ObjCopy
 0001:00004548       @Fail
 0001:00004554       GetKeyboardType
 0001:0000455C       @isNECWindows
 0001:0000458C       @FpuMaskInit
 0001:00004650       @FpuInit
 0001:0000465C       @BoundErr
 0001:00004664       @IntOver
 0001:0000466C       TObject.ClassType
 0001:00004674       TObject.ClassName
 0001:00004688       TObject.ClassNameIs
 0001:000046B0       TObject.ClassParent
 0001:000046BC       TObject.NewInstance
 0001:000046D8       TObject.FreeInstance
 0001:000046EC       TObject.InstanceSize
 0001:000046F4       TObject.Create
 0001:00004714       TObject.Destroy
 0001:00004724       TObject.Free
 0001:00004730       TObject.InitInstance
 0001:00004788       TObject.CleanupInstance
 0001:000047A8       InvokeImplGetter
 0001:000047D8       TObject.GetInterface
 0001:0000486C       TObject.GetInterfaceEntry
 0001:000048B0       TObject.GetInterfaceTable
 0001:000048B8       @IsClass
 0001:000048DC       @AsClass
 0001:000048F8       GetDynaMethod
 0001:00004928       @CallDynaInst
 0001:00004940       @CallDynaClass
 0001:00004954       @FindDynaInst
 0001:0000496C       @FindDynaClass
 0001:00004980       TObject.InheritsFrom
 0001:00004994       TObject.ClassInfo
 0001:0000499C       TObject.SafeCallException
 0001:000049A4       TObject.DefaultHandler
 0001:000049A8       TObject.AfterConstruction
 0001:000049AC       TObject.BeforeDestruction
 0001:000049B0       TObject.Dispatch
 0001:000049D8       TObject.MethodAddress
 0001:00004A28       TObject.MethodName
 0001:00004A68       TObject.FieldAddress
 0001:00004AB8       @ClassCreate
 0001:00004B08       @ClassDestroy
 0001:00004B10       @AfterConstruction
 0001:00004B20       @BeforeDestruction
 0001:00004B30       NotifyReRaise
 0001:00004B4C       NotifyNonDelphiException
 0001:00004B70       NotifyExcept
 0001:00004B88       NotifyOnExcept
 0001:00004B9C       NotifyAnyExcept
 0001:00004BB0       CheckJmp
 0001:00004BD0       NotifyExceptFinally
 0001:00004BF8       NotifyTerminate
 0001:00004C14       NotifyUnhandled
 0001:00004C34       @HandleAnyException
 0001:00004D60       @HandleOnException
 0001:00004EE8       @HandleFinally
 0001:00004F20       @HandleAutoException
 0001:00004FE4       @RaiseExcept
 0001:0000500C       @RaiseAgain
 0001:00005060       @DoneExcept
 0001:00005090       @TryFinallyExit
 0001:000050A8       MapToRunError
 0001:00005148       @ExceptionHandler
 0001:000051E8       SetExceptionHandler
 0001:00005208       UnsetExceptionHandler
 0001:00005230       FinalizeUnits
 0001:00005290       InitUnits
 0001:000052F0       @PackageLoad
 0001:00005368       @PackageUnload
 0001:000053E0       @StartExe
 0001:00005420       @StartLib
 0001:000054E8       @InitResStrings
 0001:0000550C       @InitResStringImports
 0001:00005534       @InitImports
 0001:00005558       @InitWideStrings
 0001:00005574       MakeErrorMessage
 0001:000055D0       ExitDll
 0001:00005600       WriteErrorMessage
 0001:0000568C       @Halt0
 0001:00005764       @Halt
 0001:00005770       @Run0Error
 0001:00005778       @RunError
 0001:00005784       @Assert
 0001:000057A4       ThreadWrapper
 0001:000057DC       BeginThread
 0001:00005820       EndThread
 0001:00005828       @LStrClr
 0001:0000584C       @LStrArrayClr
 0001:0000587C       @LStrAsg
 0001:000058C0       @LStrLAsg
 0001:000058EC       @NewAnsiString
 0001:00005918       @LStrFromPCharLen
 0001:00005948       CharFromWChar
 0001:00005964       WCharFromChar
 0001:0000597C       @LStrFromPWCharLen
 0001:00005A08       @LStrFromChar
 0001:00005A18       @LStrFromWChar
 0001:00005A28       @LStrFromPChar
 0001:00005A58       @LStrFromPWChar
 0001:00005A94       @LStrFromString
 0001:00005AA0       @LStrFromArray
 0001:00005AB8       @LStrFromWArray
 0001:00005AD4       @LStrFromWStr
 0001:00005AE8       @LStrToString
 0001:00005B0C       @LStrLen
 0001:00005B14       @LStrCat
 0001:00005B58       @LStrCat3
 0001:00005BCC       @LStrCatN
 0001:00005C50       @LStrCmp
 0001:00005CF4       @LStrAddRef
 0001:00005D04       @LStrToPChar
 0001:00005D10       InternalUniqueString
 0001:00005D54       UniqueString
 0001:00005D5C       @UniqueStringA
 0001:00005D64       UniqueString
 0001:00005D68       @UniqueStringW
 0001:00005D6C       @LStrCopy
 0001:00005DAC       @LStrDelete
 0001:00005DF4       @LStrInsert
 0001:00005E50       @LStrPos
 0001:00005E98       @LStrSetLength
 0001:00005EFC       @LStrOfChar
 0001:00005F28       @Write0LString
 0001:00005F30       @WriteLString
 0001:00005F50       @Write0WString
 0001:00005F58       @WriteWString
 0001:00005FC4       @Write0WCString
 0001:00005FCC       @WriteWCString
 0001:0000603C       @Write0WChar
 0001:00006044       @WriteWChar
 0001:000060A4       WStrError
 0001:000060AC       @NewWideString
 0001:000060C4       WStrSet
 0001:000060D4       @WStrClr
 0001:000060EC       @WStrArrayClr
 0001:00006110       @WStrAsg
 0001:00006134       @WStrLAsg
 0001:0000613C       @WStrFromPCharLen
 0001:000061C8       @WStrFromPWCharLen
 0001:000061EC       @WStrFromChar
 0001:000061FC       @WStrFromWChar
 0001:0000620C       @WStrFromPChar
 0001:0000623C       @WStrFromPWChar
 0001:00006278       @WStrFromString
 0001:00006284       @WStrFromArray
 0001:0000629C       @WStrFromWArray
 0001:000062B8       @WStrFromLStr
 0001:000062C8       @WStrToString
 0001:00006334       @WStrToPWChar
 0001:00006344       @WStrLen
 0001:00006350       @WStrCat
 0001:000063B0       @WStrCat3
 0001:00006414       @WStrCatN
 0001:0000645C       @WStrCmp
 0001:000064E0       @WStrCopy
 0001:0000652C       @WStrDelete
 0001:000065BC       @WStrInsert
 0001:00006658       @WStrPos
 0001:000066A8       @WStrSetLength
 0001:000066EC       @WStrOfWChar
 0001:00006714       @WStrAddRef
 0001:00006734       @InitializeRecord
 0001:00006764       @InitializeArray
 0001:000067F8       @Initialize
 0001:00006804       @FinalizeRecord
 0001:00006838       @FinalizeArray
 0001:00006924       @Finalize
 0001:00006930       @AddRefRecord
 0001:00006960       @AddRefArray
 0001:00006A20       @AddRef
 0001:00006A2C       @CopyRecord
 0001:00006B48       @CopyObject
 0001:00006B60       @CopyArray
 0001:00006C54       @New
 0001:00006C68       @Dispose
 0001:00006C78       WideCharToString
 0001:00006C80       WideCharLenToString
 0001:00006C88       WideCharToStrVar
 0001:00006C90       WideCharLenToStrVar
 0001:00006C9C       StringToWideChar
 0001:00006CCC       OleStrToString
 0001:00006CD4       OleStrToStrVar
 0001:00006CF8       StringToOleStr
 0001:00006D1C       VariantSystemUndefinedError
 0001:00006D24       VariantSystemDefaultVarClear
 0001:00006D3C       InitVariantManager
 0001:00006D5C       GetVariantManager
 0001:00006D70       SetVariantManager
 0001:00006D84       IsVariantManagerSet
 0001:00006DA8       @DispInvoke
 0001:00006DB0       @VarClear
 0001:00006DB8       @VarCopy
 0001:00006DC0       @VarCast
 0001:00006DC8       @VarCastOle
 0001:00006DD0       @VarToInt
 0001:00006DD8       @VarToInt64
 0001:00006DE0       @VarToBool
 0001:00006DE8       @VarToReal
 0001:00006DF0       @VarToCurr
 0001:00006DF8       @VarToPStr
 0001:00006E00       @VarToLStr
 0001:00006E08       @VarToWStr
 0001:00006E10       @VarToIntf
 0001:00006E18       @VarToDisp
 0001:00006E20       @VarToDynArray
 0001:00006E28       @VarFromInt
 0001:00006E30       @VarFromInt64
 0001:00006E44       @VarFromBool
 0001:00006E4C       @VarFromReal
 0001:00006E54       @VarFromTDateTime
 0001:00006E5C       @VarFromCurr
 0001:00006E64       @VarFromPStr
 0001:00006E6C       @VarFromLStr
 0001:00006E74       @VarFromWStr
 0001:00006E7C       @VarFromIntf
 0001:00006E84       @VarFromDisp
 0001:00006E8C       @VarFromDynArray
 0001:00006E94       @OleVarFromPStr
 0001:00006E9C       @OleVarFromLStr
 0001:00006EA4       @OleVarFromVar
 0001:00006EAC       @OleVarFromInt
 0001:00006EB4       @VarAdd
 0001:00006EC0       @VarSub
 0001:00006ECC       @VarMul
 0001:00006ED8       @VarDiv
 0001:00006EE4       @VarMod
 0001:00006EF0       @VarAnd
 0001:00006EFC       @VarOr
 0001:00006F08       @VarXor
 0001:00006F14       @VarShl
 0001:00006F20       @VarShr
 0001:00006F2C       @VarRDiv
 0001:00006F38       @VarCmpEQ
 0001:00006F44       @VarCmpNE
 0001:00006F50       @VarCmpLT
 0001:00006F5C       @VarCmpLE
 0001:00006F68       @VarCmpGT
 0001:00006F74       @VarCmpGE
 0001:00006F80       @VarNeg
 0001:00006F88       @VarNot
 0001:00006F90       @VarCopyNoInd
 0001:00006F98       @VarClr
 0001:00006FA0       @VarAddRef
 0001:00006FA8       @IntfDispCall
 0001:00006FB0       @DispCallByIDError
 0001:00006FB8       @IntfVarCall
 0001:00006FBC       @WriteVariant
 0001:00006FC4       @Write0Variant
 0001:00006FCC       @VarArrayRedim
 0001:00006FD4       @VarArrayGet
 0001:00006FE0       @VarArrayPut
 0001:00006FEC       @_llmul
 0001:00007010       @_llmulo
 0001:00007034       @_lldiv
 0001:000070B0       @_lldivo
 0001:000070E8       @_lludiv
 0001:00007134       @_llmod
 0001:000071B0       @_llmodo
 0001:000071E8       @_llumod
 0001:00007238       @_llshl
 0001:00007258       @_llushr
 0001:00007278       @StrInt64
 0001:00007338       @Str0Int64
 0001:00007354       @WriteInt64
 0001:0000737C       @Write0Int64
 0001:00007384       @ReadInt64
 0001:000073DC       @ValInt64
 0001:00007600       @DynArrayLength
 0001:00007608       @DynArrayHigh
 0001:00007610       CopyArray
 0001:00007620       FinalizeArray
 0001:00007628       DynArrayClear
 0001:00007630       DynArraySetLength
 0001:000077BC       @DynArraySetLength
 0001:000077C8       @DynArrayCopy
 0001:000077E8       @DynArrayCopyRange
 0001:000078DC       @DynArrayClear
 0001:00007918       @DynArrayAsg
 0001:00007940       @DynArrayAddRef
 0001:0000794C       DynArrayElTypeInfo
 0001:00007968       DynArrayDim
 0001:00007980       FindHInstance
 0001:000079A8       FindClassHInstance
 0001:000079B0       DelayLoadResourceModule
 0001:000079F8       FindResourceHInstance
 0001:00007A20       FindBS
 0001:00007A34       ToLongPath
 0001:00007BEC       LoadResourceModule
 0001:00007E5C       EnumModules
 0001:00007E64       EnumResourceModules
 0001:00007E6C       EnumModules
 0001:00007E94       EnumResourceModules
 0001:00007EC0       AddModuleUnloadProc
 0001:00007EC8       RemoveModuleUnloadProc
 0001:00007ED0       AddModuleUnloadProc
 0001:00007EF0       RemoveModuleUnloadProc
 0001:00007F50       NotifyModuleUnload
 0001:00007FAC       RegisterModule
 0001:00007FBC       UnregisterModule
 0001:0000802C       @IntfClear
 0001:00008044       @IntfCopy
 0001:00008070       @IntfCast
 0001:0000809C       @IntfAddRef
 0001:000080A8       TInterfacedObject.AfterConstruction
 0001:000080B4       TInterfacedObject.BeforeDestruction
 0001:000080C4       TInterfacedObject.NewInstance
 0001:000080D4       TInterfacedObject.QueryInterface
 0001:000080FC       TInterfacedObject._AddRef
 0001:00008110       TInterfacedObject._Release
 0001:00008138       TAggregatedObject.Create
 0001:0000815C       TAggregatedObject.GetController
 0001:00008170       TAggregatedObject.QueryInterface
 0001:0000818C       TAggregatedObject._AddRef
 0001:000081A0       TAggregatedObject._Release
 0001:000081B4       TContainedObject.QueryInterface
 0001:000081DC       @CheckAutoResult
 0001:000081F8       CompToDouble
 0001:0000820C       DoubleToComp
 0001:0000821C       CompToCurrency
 0001:0000823C       CurrencyToComp
 0001:00008254       GetMemory
 0001:00008264       FreeMemory
 0001:0000827C       ReallocMemory
 0001:0000829C       SetLineBreakStyle
 0001:000082C8       UnicodeToUtf8
 0001:000082E4       UnicodeToUtf8
 0001:000083C0       Utf8ToUnicode
 0001:000083DC       Utf8ToUnicode
 0001:00008520       UTF8Encode
 0001:000085CC       UTF8Decode
 0001:00008670       AnsiToUtf8
 0001:000086C0       Utf8ToAnsi
 0001:00008710       LoadResString
 0001:00008768       PUCS4Chars
 0001:00008784       WideStringToUCS4String
 0001:000087DC       UCS4StringToWideString
 0001:0000881C       Finalization
 0001:00008870       System
 0001:000088F8       FreeLibrary
 0001:00008900       LocalAlloc
 0001:00008908       LocalFree
 0001:00008910       TlsAlloc
 0001:00008918       TlsFree
 0001:00008920       TlsGetValue
 0001:00008928       TlsSetValue
 0001:00008930       AllocTlsBuffer
 0001:0000893C       GetTlsSize
 0001:00008944       InitThreadTLS
 0001:00008988       InitProcessTLS
 0001:000089B4       ExitThreadTLS
 0001:000089DC       ExitProcessTLS
 0001:00008A00       @GetTls
 0001:00008A40       InitializeModule
 0001:00008A4C       UninitializeModule
 0001:00008A70       @InitPkg
 0001:00008AD4       @PackageLoad
 0001:00008AE0       @PackageUnload
 0001:00008AEC       Finalization
 0001:00008B1C       SysInit
 0001:00008D98       EqualRect
 0001:00008DBC       Rect
 0001:00008DD8       Point
 0001:00008DE0       PtInRect
 0001:00008E04       IntersectRect
 0001:00008E64       UnionRect
 0001:00008ED4       IsRectEmpty
 0001:00008EEC       OffsetRect
 0001:00008F04       Bounds
 0001:00008F20       CenterPoint
 0001:00008F4C       Finalization
 0001:00008F7C       Types
 0001:00008F84       RegCloseKey
 0001:00008F8C       RegConnectRegistry
 0001:00008F94       RegCreateKeyEx
 0001:00008F9C       RegDeleteKey
 0001:00008FA4       RegDeleteValue
 0001:00008FAC       RegEnumKeyEx
 0001:00008FB4       RegEnumValue
 0001:00008FBC       RegFlushKey
 0001:00008FC4       RegLoadKey
 0001:00008FCC       RegOpenKey
 0001:00008FD4       RegOpenKeyEx
 0001:00008FDC       RegQueryInfoKey
 0001:00008FE4       RegQueryValueEx
 0001:00008FEC       RegReplaceKey
 0001:00008FF4       RegRestoreKey
 0001:00008FFC       RegSaveKey
 0001:00009004       RegSetValueEx
 0001:0000900C       RegUnLoadKey
 0001:00009014       CloseHandle
 0001:0000901C       CompareString
 0001:00009024       CompareStringA
 0001:0000902C       CompareStringW
 0001:00009034       CreateDirectory
 0001:0000903C       CreateEvent
 0001:00009044       CreateFile
 0001:0000904C       CreateSemaphore
 0001:00009054       DeleteCriticalSection
 0001:0000905C       DeleteFile
 0001:00009064       DosDateTimeToFileTime
 0001:0000906C       EnterCriticalSection
 0001:00009074       EnumCalendarInfoA
 0001:0000907C       EnumSystemLocales
 0001:00009084       FileTimeToDosDateTime
 0001:0000908C       FileTimeToLocalFileTime
 0001:00009094       FindClose
 0001:0000909C       FindFirstFile
 0001:000090A4       FindNextFile
 0001:000090AC       FindResource
 0001:000090B4       FormatMessage
 0001:000090BC       FreeLibrary
 0001:000090C4       InterlockedDecrement
 0001:000090CC       InterlockedIncrement
 0001:000090D4       FreeResource
 0001:000090DC       GetACP
 0001:000090E4       GetCPInfo
 0001:000090EC       GetComputerName
 0001:000090F4       GetCurrentThreadId
 0001:000090FC       GetDateFormat
 0001:00009104       GetDiskFreeSpaceA
 0001:0000910C       GetEnvironmentVariable
 0001:00009114       GetExitCodeThread
 0001:0000911C       GetFileAttributes
 0001:00009124       GetFileTime
 0001:0000912C       GetFullPathName
 0001:00009134       GetLastError
 0001:0000913C       GetLocalTime
 0001:00009144       GetLocaleInfo
 0001:0000914C       GetLocaleInfoA
 0001:00009154       GetLocaleInfoW
 0001:0000915C       GetModuleFileName
 0001:00009164       GetModuleHandle
 0001:0000916C       GetOverlappedResult
 0001:00009174       GetPrivateProfileString
 0001:0000917C       GetProcAddress
 0001:00009184       GetProfileInt
 0001:0000918C       GetShortPathName
 0001:00009194       GetStdHandle
 0001:0000919C       GetStringTypeEx
 0001:000091A4       GetThreadLocale
 0001:000091AC       GetThreadPriority
 0001:000091B4       GetTickCount
 0001:000091BC       GetVersionEx
 0001:000091C4       GlobalAlloc
 0001:000091CC       GlobalFree
 0001:000091D4       GlobalLock
 0001:000091DC       GlobalHandle
 0001:000091E4       GlobalReAlloc
 0001:000091EC       GlobalUnlock
 0001:000091F4       InitializeCriticalSection
 0001:000091FC       LeaveCriticalSection
 0001:00009204       LoadLibrary
 0001:0000920C       LoadLibraryEx
 0001:00009214       LoadResource
 0001:0000921C       LocalFileTimeToFileTime
 0001:00009224       LockResource
 0001:0000922C       MoveFile
 0001:00009234       MultiByteToWideChar
 0001:0000923C       ReadFile
 0001:00009244       ReleaseSemaphore
 0001:0000924C       RemoveDirectory
 0001:00009254       ResetEvent
 0001:0000925C       ResumeThread
 0001:00009264       SetCurrentDirectory
 0001:0000926C       SetEndOfFile
 0001:00009274       SetErrorMode
 0001:0000927C       SetEvent
 0001:00009284       SetFileAttributes
 0001:0000928C       SetFilePointer
 0001:00009294       SetFileTime
 0001:0000929C       SetLastError
 0001:000092A4       SetThreadPriority
 0001:000092AC       SizeofResource
 0001:000092B4       SuspendThread
 0001:000092BC       VirtualAlloc
 0001:000092C4       VirtualQuery
 0001:000092CC       WaitForSingleObject
 0001:000092D4       WriteFile
 0001:000092DC       WritePrivateProfileString
 0001:000092E4       lstrcpy
 0001:000092EC       WNetCloseEnum
 0001:000092F4       WNetEnumResource
 0001:000092FC       WNetGetUniversalName
 0001:00009304       WNetOpenEnum
 0001:0000930C       GetClipBox
 0001:00009314       GetDCOrgEx
 0001:0000931C       AnsiUpperBuff
 0001:00009324       CallWindowProc
 0001:0000932C       CharLower
 0001:00009334       CharLowerBuff
 0001:0000933C       CharLowerBuffW
 0001:00009344       CharNext
 0001:0000934C       CharUpper
 0001:00009354       CharUpperBuff
 0001:0000935C       CharUpperBuffW
 0001:00009364       CreateWindowEx
 0001:0000936C       DefWindowProc
 0001:00009374       DestroyWindow
 0001:0000937C       DispatchMessage
 0001:00009384       EnableScrollBar
 0001:0000938C       GetCapture
 0001:00009394       GetClassInfo
 0001:0000939C       GetMessage
 0001:000093A4       GetScrollInfo
 0001:000093AC       GetScrollPos
 0001:000093B4       GetScrollRange
 0001:000093BC       GetSystemMetrics
 0001:000093C4       GetWindowLong
 0001:000093CC       GetWindowPlacement
 0001:000093D4       GetWindowRect
 0001:000093DC       IntersectRect
 0001:000093E4       IsIconic
 0001:000093EC       LoadString
 0001:000093F4       MessageBeep
 0001:000093FC       MessageBox
 0001:00009404       MsgWaitForMultipleObjects
 0001:0000940C       OffsetRect
 0001:00009414       PeekMessage
 0001:0000941C       PostMessage
 0001:00009424       RegisterClass
 0001:0000942C       SendMessage
 0001:00009434       SetScrollInfo
 0001:0000943C       SetScrollPos
 0001:00009444       SetScrollRange
 0001:0000944C       SetWindowLong
 0001:00009454       ShowScrollBar
 0001:0000945C       SystemParametersInfo
 0001:00009464       UnregisterClass
 0001:0000946C       HiWord
 0001:00009470       HiByte
 0001:00009478       UnlockResource
 0001:0000947C       GlobalAllocPtr
 0001:0000948C       GlobalReAllocPtr
 0001:000094A8       GlobalFreePtr
 0001:000094BC       Succeeded
 0001:000094CC       Finalization
 0001:000094FC       Windows
 0001:00009984       Finalization
 0001:000099B4       SysConst
 0001:0000B2A4       DivMod
 0001:0000B2C0       ConvertError
 0001:0000B2D8       ConvertErrorFmt
 0001:0000B2FC       CoCreateGuid
 0001:0000B304       CreateGUID
 0001:0000B314       StringFromCLSID
 0001:0000B31C       CoTaskMemFree
 0001:0000B324       CLSIDFromString
 0001:0000B32C       StringToGUID
 0001:0000B3A8       GUIDToString
 0001:0000B3E0       IsEqualGUID
 0001:0000B3E8       AllocMem
 0001:0000B408       DoExitProc
 0001:0000B434       AddExitProc
 0001:0000B46C       NewStr
 0001:0000B49C       DisposeStr
 0001:0000B4B8       AssignStr
 0001:0000B4D8       AppendStr
 0001:0000B4EC       UpperCase
 0001:0000B528       LowerCase
 0001:0000B564       CompareStr
 0001:0000B594       CompareMem
 0001:0000B5B4       CompareText
 0001:0000B608       SameText
 0001:0000B62C       AnsiUpperCase
 0001:0000B660       AnsiLowerCase
 0001:0000B694       AnsiCompareStr
 0001:0000B6CC       AnsiSameStr
 0001:0000B6E4       AnsiCompareText
 0001:0000B71C       AnsiSameText
 0001:0000B734       AnsiStrComp
 0001:0000B754       AnsiStrIComp
 0001:0000B774       AnsiStrLComp
 0001:0000B794       AnsiStrLIComp
 0001:0000B7B4       AnsiStrLower
 0001:0000B7C4       AnsiStrUpper
 0001:0000B7D4       WideUpperCase
 0001:0000B808       WideLowerCase
 0001:0000B83C       DumbItDownFor95
 0001:0000B8D0       WideCompareStr
 0001:0000B93C       WideSameStr
 0001:0000B954       WideCompareText
 0001:0000B9C4       WideSameText
 0001:0000B9DC       Trim
 0001:0000BA2C       Trim
 0001:0000BA7C       TrimLeft
 0001:0000BAB0       TrimLeft
 0001:0000BAE8       TrimRight
 0001:0000BB1C       TrimRight
 0001:0000BB50       QuotedStr
 0001:0000BBB0       AnsiQuotedStr
 0001:0000BCD4       AnsiExtractQuotedStr
 0001:0000BDD4       AnsiDequotedStr
 0001:0000BE08       AdjustLineBreaks
 0001:0000BF70       IsValidIdent
 0001:0000BFD4       IntToStr
 0001:0000C004       IntToStr
 0001:0000C038       IntToHex
 0001:0000C074       IntToHex
 0001:0000C0B4       StrToInt
 0001:0000C0F0       StrToIntDef
 0001:0000C108       TryStrToInt
 0001:0000C128       StrToInt64
 0001:0000C16C       StrToInt64Def
 0001:0000C1A0       TryStrToInt64
 0001:0000C1C0       VerifyBoolStrArray
 0001:0000C250       StrToBool
 0001:0000C284       StrToBoolDef
 0001:0000C2A4       CompareWith
 0001:0000C2E0       TryStrToBool
 0001:0000C37C       BoolToStr
 0001:0000C3E8       EnumStringModules
 0001:0000C424       FindStringResource
 0001:0000C498       LoadStr
 0001:0000C4AC       FmtLoadStr
 0001:0000C508       FileOpen
 0001:0000C564       FileCreate
 0001:0000C588       FileCreate
 0001:0000C590       FileRead
 0001:0000C5BC       FileWrite
 0001:0000C5E8       FileSeek
 0001:0000C5F4       FileSeek
 0001:0000C62C       FileClose
 0001:0000C634       FileAge
 0001:0000C69C       FileExists
 0001:0000C6AC       DirectoryExists
 0001:0000C6D0       ForceDirectories
 0001:0000C7B4       FileGetDate
 0001:0000C804       FileSetDate
 0001:0000C83C       FileSetDate
 0001:0000C894       FileGetAttr
 0001:0000C8A8       FileSetAttr
 0001:0000C8D0       FileIsReadOnly
 0001:0000C8E8       FileSetReadOnly
 0001:0000C930       FindMatchingFile
 0001:0000C994       FindFirst
 0001:0000C9E4       FindNext
 0001:0000CA08       FindClose
 0001:0000CA24       DeleteFile
 0001:0000CA3C       RenameFile
 0001:0000CA60       AnsiStrLastChar
 0001:0000CA88       AnsiLastChar
 0001:0000CAB8       LastDelimiter
 0001:0000CB08       ChangeFileExt
 0001:0000CB9C       ExtractFilePath
 0001:0000CBD0       ExtractFileDir
 0001:0000CC44       ExtractFileDrive
 0001:0000CCD8       ExtractFileName
 0001:0000CD10       ExtractFileExt
 0001:0000CD58       ExpandFileName
 0001:0000CD94       ExpandFileNameCase
 0001:0000CFB8       GetUniversalName
 0001:0000D214       ExpandUNCFileName
 0001:0000D29C       ExtractFilePathNoDrive
 0001:0000D300       Next
 0001:0000D328       ExtractRelativePath
 0001:0000D4DC       ExtractShortPathName
 0001:0000D514       FileSearch
 0001:0000D5E8       BackfillGetDiskFreeSpaceEx
 0001:0000D65C       InternalGetDiskSpace
 0001:0000D68C       DiskFree
 0001:0000D6C0       DiskSize
 0001:0000D6F4       FileDateToDateTime
 0001:0000D760       DateTimeToFileDate
 0001:0000D7F0       GetCurrentDir
 0001:0000D7FC       SetCurrentDir
 0001:0000D814       CreateDir
 0001:0000D830       RemoveDir
 0001:0000D848       StrLen
 0001:0000D860       StrEnd
 0001:0000D874       StrMove
 0001:0000D884       StrCopy
 0001:0000D8AC       StrECopy
 0001:0000D8D8       StrLCopy
 0001:0000D90C       StrPCopy
 0001:0000D930       StrPLCopy
 0001:0000D950       StrCat
 0001:0000D96C       StrLCat
 0001:0000D990       StrComp
 0001:0000D9B4       StrIComp
 0001:0000D9F4       StrLComp
 0001:0000DA1C       StrLIComp
 0001:0000DA60       StrScan
 0001:0000DA80       StrRScan
 0001:0000DAA4       StrPos
 0001:0000DAF8       StrUpper
 0001:0000DB14       StrLower
 0001:0000DB30       StrPas
 0001:0000DB44       StrAlloc
 0001:0000DB58       StrBufSize
 0001:0000DB64       StrNew
 0001:0000DB90       StrDispose
 0001:0000DBA0       FormatError
 0001:0000DBF8       FormatVarToStr
 0001:0000DC0C       FormatClearStr
 0001:0000DC18       FormatBuf
 0001:0000E02C       StrFmt
 0001:0000E06C       StrLFmt
 0001:0000E0AC       Format
 0001:0000E0C0       FmtStr
 0001:0000E180       WideFormatError
 0001:0000E200       WideFormatBuf
 0001:0000E678       WideFmtStr
 0001:0000E744       WideFormat
 0001:0000E758       PutExponent
 0001:0000E79C       FloatToText
 0001:0000EA74       FloatToTextFmt
 0001:0000ED68       FloatToDecimal
 0001:0000EF94       TextToFloat
 0001:0000F0A8       FloatToStr
 0001:0000F0D8       CurrToStr
 0001:0000F108       TryFloatToCurr
 0001:0000F158       FloatToCurr
 0001:0000F1DC       FloatToStrF
 0001:0000F214       CurrToStrF
 0001:0000F24C       FormatFloat
 0001:0000F2A4       FormatCurr
 0001:0000F2FC       StrToFloat
 0001:0000F338       StrToFloatDef
 0001:0000F374       TryStrToFloat
 0001:0000F390       TryStrToFloat
 0001:0000F3BC       TryStrToFloat
 0001:0000F3E8       StrToCurr
 0001:0000F424       StrToCurrDef
 0001:0000F458       TryStrToCurr
 0001:0000F474       DateTimeToTimeStamp
 0001:0000F4B8       ValidateTimeStamp
 0001:0000F4F8       TimeStampToDateTime
 0001:0000F534       MSecsToTimeStamp
 0001:0000F554       TimeStampToMSecs
 0001:0000F56C       TryEncodeTime
 0001:0000F5DC       EncodeTime
 0001:0000F61C       DecodeTime
 0001:0000F678       IsLeapYear
 0001:0000F6B4       TryEncodeDate
 0001:0000F77C       EncodeDate
 0001:0000F7AC       DecodeDateFully
 0001:0000F8F8       DecodeDate
 0001:0000F918       DateTimeToSystemTime
 0001:0000F958       SystemTimeToDateTime
 0001:0000F9C8       DayOfWeek
 0001:0000F9F0       Date
 0001:0000FA1C       Time
 0001:0000FA50       Now
 0001:0000FAA0       IncMonth
 0001:0000FAFC       IncAMonth
 0001:0000FB88       ReplaceTime
 0001:0000FBDC       ReplaceDate
 0001:0000FC10       CurrentYear
 0001:0000FC24       AppendChars
 0001:0000FC68       AppendString
 0001:0000FC88       AppendNumber
 0001:0000FCD4       GetCount
 0001:0000FD00       GetDate
 0001:0000FD38       GetTime
 0001:0000FD78       ConvertEraString
 0001:0000FEE0       ConvertYearString
 0001:0000FFE8       AppendFormat
 0001:00010778       DateTimeToString
 0001:000107D4       TryFloatToDateTime
 0001:0001081C       FloatToDateTime
 0001:0001085C       DateToStr
 0001:00010874       TimeToStr
 0001:0001088C       DateTimeToStr
 0001:000108A0       FormatDateTime
 0001:000108B4       ScanBlanks
 0001:000108D8       ScanNumber
 0001:0001096C       ScanString
 0001:000109F8       ScanChar
 0001:00010A30       GetDateOrder
 0001:00010A7C       ScanToNumber
 0001:00010AC4       GetEraYearOffset
 0001:00010B18       EraToYear
 0001:00010B74       ScanDate
 0001:00010EB0       ScanTime
 0001:000110A8       StrToDate
 0001:000110DC       StrToDateDef
 0001:0001110C       TryStrToDate
 0001:00011140       StrToTime
 0001:00011174       StrToTimeDef
 0001:000111A4       TryStrToTime
 0001:000111D8       StrToDateTime
 0001:0001120C       StrToDateTimeDef
 0001:0001123C       TryStrToDateTime
 0001:000112C8       SysErrorMessage
 0001:00011314       GetLocaleStr
 0001:00011360       GetLocaleChar
 0001:00011388       LocalGetLocaleStr
 0001:000113C4       GetMonthDayNames
 0001:000114E8       EnumEraNames
 0001:00011524       EnumEraYearOffsets
 0001:0001159C       GetEraNamesAndYearOffsets
 0001:0001164C       TranslateDateFormat
 0001:00011874       ConvertAddr
 0001:00011880       ExceptionErrorMessage
 0001:00011A08       ShowException
 0001:00011AC0       ReturnAddr
 0001:00011AC4       Abort
 0001:00011B20       OutOfMemoryError
 0001:00011B2C       Exception.Create
 0001:00011B68       Exception.CreateFmt
 0001:00011BE8       Exception.CreateRes
 0001:00011C60       Exception.CreateRes
 0001:00011C9C       Exception.CreateResFmt
 0001:00011D30       Exception.CreateResFmt
 0001:00011DC4       Exception.CreateHelp
 0001:00011E0C       Exception.CreateFmtHelp
 0001:00011E94       Exception.CreateResHelp
 0001:00011F14       Exception.CreateResHelp
 0001:00011F5C       Exception.CreateResFmtHelp
 0001:00011FF8       Exception.CreateResFmtHelp
 0001:00012094       EHeapException.FreeInstance
 0001:000120C0       CreateInOutError
 0001:00012140       ErrorHandler
 0001:00012194       CreateAssertException
 0001:00012240       RaiseAssertException
 0001:00012250       AssertErrorHandler
 0001:0001226C       AbstractErrorHandler
 0001:00012284       MapException
 0001:00012304       GetExceptionClass
 0001:0001231C       CreateAVObject
 0001:000124E8       GetExceptionObject
 0001:000125B4       ExceptHandler
 0001:000125C4       InitExceptions
 0001:00012648       DoneExceptions
 0001:000126B4       InitPlatformId
 0001:0001270C       CheckWin32Version
 0001:0001272C       Beep
 0001:00012734       ByteTypeTest
 0001:000127AC       ByteType
 0001:000127D0       StrByteType
 0001:000127E8       ByteToCharLen
 0001:00012810       ByteToCharIndex
 0001:00012868       CountChars
 0001:000128F8       CharToByteIndex
 0001:0001295C       CharToByteLen
 0001:000129BC       StrCharLength
 0001:000129DC       StrNextChar
 0001:000129E4       CharLength
 0001:00012A20       NextCharIndex
 0001:00012A5C       IsPathDelimiter
 0001:00012A90       IsDelimiter
 0001:00012AD4       IncludeTrailingBackslash
 0001:00012AE8       IncludeTrailingPathDelimiter
 0001:00012B28       ExcludeTrailingBackslash
 0001:00012B3C       ExcludeTrailingPathDelimiter
 0001:00012B74       AnsiPos
 0001:00012BAC       AnsiCompareFileName
 0001:00012C14       SameFileName
 0001:00012C2C       AnsiLowerCaseFileName
 0001:00012CB8       AnsiUpperCaseFileName
 0001:00012D44       AnsiStrPos
 0001:00012DE4       AnsiStrRScan
 0001:00012E0C       AnsiStrScan
 0001:00012E4C       LCIDToCodePage
 0001:00012EC0       InitLeadBytes
 0001:00012F20       IsWesternGroup
 0001:00012F38       InitSysLocale
 0001:000130AC       GetFormatSettings
 0001:00013424       StringReplace
 0001:00013558       WrapText
 0001:0001379C       WrapText
 0001:000137E8       FindCmdLineSwitch
 0001:000138F8       FindCmdLineSwitch
 0001:00013928       FindCmdLineSwitch
 0001:00013958       PackageInfoTable
 0001:000139DC       GetModuleName
 0001:00013A0C       IsUnitPresent
 0001:00013BA0       FindLibModule
 0001:00013BBC       InternalUnitCheck
 0001:00013D88       CheckForDuplicateUnits
 0001:00013DA4       Sleep
 0001:00013DAC       InitializePackage
 0001:00013E5C       FinalizePackage
 0001:00013EA0       LoadPackage
 0001:00013F70       UnloadPackage
 0001:00013F84       GetPackageInfo
 0001:000140D4       GetPackageDescription
 0001:00014224       RaiseLastOSError
 0001:000142C0       RaiseLastWin32Error
 0001:000142C8       Win32Check
 0001:000142D8       AddTerminateProc
 0001:000142F8       CallTerminateProcs
 0001:00014314       FreeTerminateProcs
 0001:00014334       AL1
 0001:00014344       AL2
 0001:0001435C       ALV
 0001:000143B0       ALR
 0001:00014420       GDAL
 0001:00014494       RCS
 0001:000144E0       RPR
 0001:000144FC       InitDriveSpacePtr
 0001:00014558       InterlockedIncrement
 0001:00014564       InterlockedDecrement
 0001:00014570       InterlockedExchange
 0001:00014578       InterlockedExchangeAdd
 0001:00014580       TSimpleRWSync.Create
 0001:000145C0       TSimpleRWSync.Destroy
 0001:000145F0       TSimpleRWSync.BeginWrite
 0001:000145FC       TSimpleRWSync.EndWrite
 0001:00014608       TSimpleRWSync.BeginRead
 0001:00014614       TSimpleRWSync.EndRead
 0001:00014620       TThreadLocalCounter.Create
 0001:0001465C       TThreadLocalCounter.Destroy
 0001:000146C4       TThreadLocalCounter.HashIndex
 0001:000146DC       TThreadLocalCounter.Open
 0001:00014754       TThreadLocalCounter.Close
 0001:000147DC       TThreadLocalCounter.Delete
 0001:00014824       TThreadLocalCounter.Reattach
 0001:00014850       TThreadLocalCounter.Recycle
 0001:0001490C       TThreadLocalCounter2.Destroy
 0001:0001495C       TThreadLocalCounter2.HashIndex
 0001:00014974       TThreadLocalCounter2.Open
 0001:000149EC       TThreadLocalCounter2.Delete
 0001:000149FC       TThreadLocalCounter2.Recycle
 0001:00014A3C       TMultiReadExclusiveWriteSynchronizer.Create
 0001:00014AB0       TMultiReadExclusiveWriteSynchronizer.Destroy
 0001:00014AF8       TMultiReadExclusiveWriteSynchronizer.BlockReaders
 0001:00014B04       TMultiReadExclusiveWriteSynchronizer.UnblockReaders
 0001:00014B10       TMultiReadExclusiveWriteSynchronizer.UnblockOneWriter
 0001:00014B1C       TMultiReadExclusiveWriteSynchronizer.WaitForReadSignal
 0001:00014B2C       TMultiReadExclusiveWriteSynchronizer.WaitForWriteSignal
 0001:00014B3C       TMultiReadExclusiveWriteSynchronizer.BeginWrite
 0001:00014BD8       TMultiReadExclusiveWriteSynchronizer.EndWrite
 0001:00014C28       TMultiReadExclusiveWriteSynchronizer.BeginRead
 0001:00014C84       TMultiReadExclusiveWriteSynchronizer.EndRead
 0001:00014CEC       FreeAndNil
 0001:00014CFC       Supports
 0001:00014D20       Supports
 0001:00014DB8       Supports
 0001:00014E0C       Supports
 0001:00014E60       Supports
 0001:00014E78       GetLocaleDataW
 0001:00014EB0       GetLocaleDataA
 0001:00014EEC       TLanguages.LocalesCallback
 0001:00015010       TLanguages.Create
 0001:00015080       TLanguages.GetCount
 0001:00015090       TLanguages.GetExt
 0001:000150B0       TLanguages.GetID
 0001:0001511C       TLanguages.GetLCID
 0001:00015128       TLanguages.GetName
 0001:00015148       TLanguages.GetNameFromLocaleID
 0001:00015180       TLanguages.GetNameFromLCID
 0001:000151A4       TLanguages.IndexOf
 0001:000151D4       Languages
 0001:000151F4       SafeLoadLibrary
 0001:00015278       GetEnvironmentVariable
 0001:00015590       Finalization
 0001:00015710       SysUtils
 0001:00015790       VarExceptionToResult
 0001:0001582C       VariantInit
 0001:00015834       VariantClear
 0001:0001583C       VariantCopy
 0001:00015844       VariantCopyInd
 0001:0001584C       VariantChangeType
 0001:00015854       BackupVariantChangeTypeEx
 0001:00015884       UniUnimplemented
 0001:00015890       BiUnimplemented
 0001:0001589C       CmpUnimplemented
 0001:000158A8       BackupVarI4FromStr
 0001:00015914       BackupVarR4FromStr
 0001:00015980       BackupVarR8FromStr
 0001:000159EC       BackupVarDateFromStr
 0001:00015A58       BackupVarCyFromStr
 0001:00015AC4       BackupVarBoolFromStr
 0001:00015B44       BackupVarBStrFromCy
 0001:00015BB4       BackupVarBStrFromDate
 0001:00015C24       BackupVarBStrFromBool
 0001:00015C98       SafeArrayCreate
 0001:00015CA0       SafeArrayRedim
 0001:00015CA8       SafeArrayGetLBound
 0001:00015CB0       SafeArrayGetUBound
 0001:00015CB8       SafeArrayAccessData
 0001:00015CC0       SafeArrayUnaccessData
 0001:00015CC8       SafeArrayGetElement
 0001:00015CD0       SafeArrayPutElement
 0001:00015CD8       SafeArrayPtrOfIndex
 0001:00015CE0       VariantChangeTypeEx
 0001:00015D04       VarNeg
 0001:00015D1C       VarNot
 0001:00015D34       VarCmp
 0001:00015D54       VarAdd
 0001:00015D70       VarSub
 0001:00015D8C       VarMul
 0001:00015DA8       VarDiv
 0001:00015DC4       VarIDiv
 0001:00015DE0       VarMod
 0001:00015DFC       VarAnd
 0001:00015E18       VarOr
 0001:00015E34       VarXor
 0001:00015E50       VarI4FromStr
 0001:00015E70       VarR4FromStr
 0001:00015E90       VarR8FromStr
 0001:00015EB0       VarDateFromStr
 0001:00015ED0       VarCyFromStr
 0001:00015EF0       VarBoolFromStr
 0001:00015F10       VarBstrFromCy
 0001:00015F40       VarBstrFromDate
 0001:00015F70       VarBstrFromBool
 0001:00015FA0       FindProc
 0001:00015FCC       InitializeVarUtils
 0001:000162D8       Finalization
 0001:00016308       VarUtils
 0001:00017078       VarCastError
 0001:000170CC       VarCastError
 0001:00017168       VarInvalidOp
 0001:000171BC       VarInvalidNullOp
 0001:00017210       VarOverflowError
 0001:000172AC       VarRangeCheckError
 0001:000173A0       VarArrayCreateError
 0001:000173F4       TranslateResult
 0001:0001761C       VarResultCheck
 0001:00017628       VarResultCheck
 0001:0001765C       HandleConversionException
 0001:000176E0       _DispInvokeError
 0001:00017734       _VarNull
 0001:00017748       InBounds
 0001:00017778       Increment
 0001:000177D4       VarArrayClear
 0001:00017950       VarClearDeep
 0001:000179CC       _VarClear
 0001:000179E0       _DispInvoke
 0001:00017AE4       InBounds
 0001:00017B14       Increment
 0001:00017B70       VarArrayCopyForEach
 0001:00017D3C       VarCopyCopyProc
 0001:00017D44       VarCopyDeep
 0001:00017DF0       _VarCopy
 0001:00017E34       VarCopyNoIndViaOS
 0001:00017E54       VarCopyNoIndOleStr
 0001:00017E5C       VarCopyNoIndCopyProc
 0001:00017E64       VarCopyNoIndDeep
 0001:00017E98       VarCopyByRef
 0001:00018070       _VarCopyNoInd
 0001:00018084       VarCopyNoInd
 0001:0001808C       _VarStringToOleStr
 0001:000180AC       VarStringToOleStr
 0001:000180B4       VarCastAsAny
 0001:00018120       VarCastAsOleStr
 0001:0001816C       VarCastAsString
 0001:000181B8       VarCastAsDispatch
 0001:00018204       VarCastAsInterface
 0001:00018250       VarCastViaOS
 0001:000182C8       VarCastRare
 0001:00018334       _VarCast
 0001:00018560       _VarCastOle
 0001:000185CC       VarToIntAsString
 0001:0001867C       VarToIntViaOS
 0001:000186B4       VarToIntAny
 0001:00018718       VarToIntCustom
 0001:0001875C       _VarToInteger
 0001:00018B58       _VarToShortInt
 0001:00018C08       _VarToByte
 0001:00018CB0       _VarToSmallInt
 0001:00018DA8       _VarToWord
 0001:00018E80       _VarToLongWord
 0001:00018F68       VarToInt64ViaOS
 0001:0001900C       VarToInt64AsString
 0001:00019104       VarToInt64Any
 0001:00019170       VarToInt64Custom
 0001:000191BC       _VarToInt64
 0001:00019600       VarToBoolAsString
 0001:000196C4       VarToBoolViaOS
 0001:00019700       VarToBoolAny
 0001:00019764       VarToBoolCustom
 0001:000197B0       _VarToBool
 0001:00019AF8       _VarToBoolWithFix
 0001:00019B04       VarToDoubleAsString
 0001:00019BC4       VarToDoubleViaOS
 0001:00019C0C       VarToDoubleAny
 0001:00019C70       VarToDoubleCustom
 0001:00019CBC       _VarToDouble
 0001:0001A038       _VarToExtended
 0001:0001A054       _VarToSingle
 0001:0001A1E4       VarToDateAsString
 0001:0001A2CC       VarToDateAsDouble
 0001:0001A328       VarToDateViaOS
 0001:0001A370       VarToDateAny
 0001:0001A3D4       VarToDateCustom
 0001:0001A420       _VarToDate
 0001:0001A770       VarToCurrencyAsString
 0001:0001A828       VarToCurrencyAsDouble
 0001:0001A884       VarToCurrencyViaOS
 0001:0001A8CC       VarToCurrencyAny
 0001:0001A930       VarToCurrencyCustom
 0001:0001A97C       _VarToCurrency
 0001:0001AD48       CurrToWStrViaOS
 0001:0001AD7C       DateToWStrViaOS
 0001:0001ADB0       BoolToWStrViaOS
 0001:0001AE70       VarToLStrViaOS
 0001:0001AF38       VarToLStrAny
 0001:0001AF9C       VarToLStrCustom
 0001:0001B020       _VarToLStr
 0001:0001B564       _VarToPStr
 0001:0001B5B4       VarToWStrViaOS
 0001:0001B668       VarToWStrAny
 0001:0001B6CC       VarToWStrCustom
 0001:0001B794       _VarToWStr
 0001:0001BCF4       AnyToIntf
 0001:0001BD6C       _VarToIntf
 0001:0001BE38       _VarToDisp
 0001:0001BEE4       _VarToDynArray
 0001:0001BEF4       _VarFromInt
 0001:0001BF34       _VarFromInteger
 0001:0001BF54       _OleVarFromInt
 0001:0001BF74       _VarFromByte
 0001:0001BF94       _VarFromWord
 0001:0001BFB4       _VarFromLongWord
 0001:0001BFD4       _VarFromShortInt
 0001:0001BFF4       _VarFromSmallInt
 0001:0001C014       _VarFromInt64
 0001:0001C040       _VarFromSingle
 0001:0001C064       _VarFromDouble
 0001:0001C090       _VarFromCurrency
 0001:0001C0BC       _VarFromDate
 0001:0001C0E8       _VarFromBool
 0001:0001C110       _VarFromReal
 0001:0001C124       _VarFromTDateTime
 0001:0001C138       _VarFromCurr
 0001:0001C14C       _VarFromLStr
 0001:0001C178       _VarFromPStr
 0001:0001C1C8       _VarFromWStr
 0001:0001C200       _VarFromIntf
 0001:0001C22C       _VarFromDisp
 0001:0001C258       _VarFromDynArray
 0001:0001C26C       _OleVarFromLStr
 0001:0001C2BC       _OleVarFromPStr
 0001:0001C30C       OleVarFromAny
 0001:0001C370       OleVarFromVarArrayProc
 0001:0001C378       _OleVarFromVar
 0001:0001C4C8       VarStrCat
 0001:0001C57C       VarOpRare
 0001:0001C8C8       AnyOp
 0001:0001C954       CheckType
 0001:0001C99C       RealOp
 0001:0001CA18       DateOp
 0001:0001CA74       IntOp
 0001:0001CB80       Int64Op
 0001:0001CD5C       NullOp
 0001:0001CE08       EmptyOp
 0001:0001CEA0       SimpleVarOp
 0001:0001D2EC       _VarOp
 0001:0001D37C       VarCompareAny
 0001:0001D450       EmptyCompare
 0001:0001D464       NullCompare
 0001:0001D54C       CheckType
 0001:0001D570       IntCompare
 0001:0001D584       Int64Compare
 0001:0001D5C0       RealCompare
 0001:0001D5E8       DateCompare
 0001:0001D610       CurrCompare
 0001:0001D63C       StringCompare
 0001:0001D6A8       VarCompareSimple
 0001:0001D840       VarCompareRare
 0001:0001DC60       VarCompare
 0001:0001DCE0       _VarCmp
 0001:0001DCE8       NegateAsDouble
 0001:0001DD00       NegateViaOS
 0001:0001DD14       NegateVariant
 0001:0001DD40       NegateByte
 0001:0001DD54       NegateWord
 0001:0001DD64       NegateLongWord
 0001:0001DD98       NegateAny
 0001:0001DDAC       NegateCustom
 0001:0001DDD8       _VarNeg
 0001:0001E0C8       NotAsString
 0001:0001E198       NotAsOrdinal
 0001:0001E200       NotViaOS
 0001:0001E214       NotVariant
 0001:0001E240       NotAny
 0001:0001E254       NotCustom
 0001:0001E280       _VarNot
 0001:0001E500       _VarAddRef
 0001:0001E684       VarTypeAsText
 0001:0001E7F4       VarType
 0001:0001E7F8       FindVarData
 0001:0001E808       VarAsType
 0001:0001E814       VarIsType
 0001:0001E82C       VarIsType
 0001:0001E864       VarIsClear
 0001:0001E8D8       VarTypeIsCustom
 0001:0001E8E4       VarIsCustom
 0001:0001E8F8       VarTypeIsOrdinal
 0001:0001E918       VarIsOrdinal
 0001:0001E92C       VarTypeIsFloat
 0001:0001E938       VarIsFloat
 0001:0001E94C       VarTypeIsNumeric
 0001:0001E970       VarIsNumeric
 0001:0001E984       VarTypeIsStr
 0001:0001E998       VarIsStr
 0001:0001E9AC       VarIsEmpty
 0001:0001E9C0       VarCheckEmpty
 0001:0001EA24       VarIsNull
 0001:0001EA38       VarToStr
 0001:0001EA50       VarToStrDef
 0001:0001EA7C       VarToWideStr
 0001:0001EAD4       VarToWideStrDef
 0001:0001EB00       VarFromDateTime
 0001:0001EB24       VarToDateTime
 0001:0001EB38       VarInRange
 0001:0001EB64       VarEnsureRange
 0001:0001EBB0       VarSameValue
 0001:0001EC28       VarCompareValue
 0001:0001ECC8       SetVarAsError
 0001:0001ECE0       VarIsEmptyParam
 0001:0001ED04       SetClearVarToEmptyParam
 0001:0001ED10       VarIsError
 0001:0001ED38       VarIsError
 0001:0001ED44       VarAsError
 0001:0001ED4C       VarIsByRef
 0001:0001ED54       VarSupports
 0001:0001EE1C       VarSupports
 0001:0001EEF4       _WriteVariant
 0001:0001EF58       _Write0Variant
 0001:0001EF60       GetVarDataArrayInfo
 0001:0001EFA4       VarArrayCreate
 0001:0001F04C       VarArrayOf
 0001:0001F0A0       _VarArrayRedim
 0001:0001F0F8       GetVarArray
 0001:0001F120       VarArrayDimCount
 0001:0001F148       VarArrayLowBound
 0001:0001F16C       VarArrayHighBound
 0001:0001F190       VarArrayLock
 0001:0001F1B0       VarArrayUnlock
 0001:0001F1C8       VarArrayRef
 0001:0001F208       VarIsArray
 0001:0001F210       VarIsArray
 0001:0001F238       VarTypeIsValidArrayType
 0001:0001F258       VarTypeIsValidElementType
 0001:0001F294       _VarArrayGet
 0001:0001F360       VarArrayGet
 0001:0001F384       _VarArrayPut
 0001:0001F4CC       VarArrayPut
 0001:0001F4F4       DynArrayIndex
 0001:0001F534       DynArrayElTypeInfo
 0001:0001F550       DynArrayDim
 0001:0001F568       DynArraySize
 0001:0001F570       IsDynArrayRectangular
 0001:0001F5D8       DynArrayBounds
 0001:0001F62C       DecIndices
 0001:0001F698       DynArrayVariantBounds
 0001:0001F6F0       DynArrayVarType
 0001:0001F738       DynArrayToVariant
 0001:0001FA58       DynArrayFromVariant
 0001:0001FD4C       ClearVariantTypeList
 0001:0001FDBC       TCustomVariantType.BinaryOp
 0001:0001FDC8       TCustomVariantType.Cast
 0001:0001FE00       TCustomVariantType.CastTo
 0001:0001FE48       TCustomVariantType.Compare
 0001:0001FE54       TCustomVariantType.CompareOp
 0001:0001FE8C       TCustomVariantType.CastToOle
 0001:0001FEC8       TCustomVariantType.Create
 0001:0001FF0C       TCustomVariantType.Create
 0001:00020170       TCustomVariantType.Destroy
 0001:000201FC       TCustomVariantType.IsClear
 0001:00020200       TCustomVariantType.LeftPromotion
 0001:00020214       TCustomVariantType.OlePromotion
 0001:0002021C       TCustomVariantType.RaiseCastError
 0001:00020224       TCustomVariantType.RaiseInvalidOp
 0001:0002022C       TCustomVariantType.RaiseDispError
 0001:00020234       TCustomVariantType.RightPromotion
 0001:00020248       TCustomVariantType.SimplisticClear
 0001:00020250       TCustomVariantType.SimplisticCopy
 0001:00020288       TCustomVariantType.UnaryOp
 0001:00020290       TCustomVariantType.VarDataInit
 0001:00020298       TCustomVariantType.VarDataClear
 0001:000202A0       TCustomVariantType.VarDataCopy
 0001:000202AC       TCustomVariantType.VarDataCopyNoInd
 0001:000202B8       TCustomVariantType.VarDataCast
 0001:000202C8       TCustomVariantType.VarDataCastTo
 0001:000202DC       TCustomVariantType.VarDataCastTo
 0001:000202E8       TCustomVariantType.VarDataCastToOleStr
 0001:00020304       TCustomVariantType.VarDataIsArray
 0001:0002030C       TCustomVariantType.VarDataIsByRef
 0001:00020314       TCustomVariantType.DispInvoke
 0001:00020320       TCustomVariantType.VarDataIsEmptyParam
 0001:00020328       TCustomVariantType.VarDataFromStr
 0001:00020334       TCustomVariantType.VarDataFromOleStr
 0001:00020340       TCustomVariantType._AddRef
 0001:0002034C       TCustomVariantType._Release
 0001:00020358       TCustomVariantType.QueryInterface
 0001:00020380       TCustomVariantType.VarDataIsNumeric
 0001:0002038C       TCustomVariantType.VarDataIsOrdinal
 0001:00020398       TCustomVariantType.VarDataIsStr
 0001:000203A4       TCustomVariantType.VarDataIsFloat
 0001:000203B0       TCustomVariantType.VarDataToStr
 0001:0002040C       ParseParam
 0001:000206C8       TInvokeableVariantType.DispInvoke
 0001:00020974       TInvokeableVariantType.GetProperty
 0001:00020980       TInvokeableVariantType.SetProperty
 0001:0002098C       TInvokeableVariantType.DoFunction
 0001:00020998       TInvokeableVariantType.DoProcedure
 0001:000209A4       FindCustomVariantType
 0001:00020A5C       FindCustomVariantType
 0001:00020B44       Unassigned
 0001:00020B4C       Null
 0001:00020B54       Finalization
 0001:00020BD8       Variants
 0001:00020DDC       Finalization
 0001:00020E0C       Messages
 0001:00021164       Finalization
 0001:00021194       RTLConsts
 0001:000217B0       PropertyNotFound
 0001:000217DC       IsPublishedProp
 0001:00021800       IsPublishedProp
 0001:00021824       GetPropInfo
 0001:00021844       GetPropInfo
 0001:00021864       PropIsType
 0001:00021880       PropIsType
 0001:0002189C       PropType
 0001:000218B4       FindPropInfo
 0001:000218DC       FindPropInfo
 0001:00021904       PropType
 0001:0002191C       IsStoredProp
 0001:00021938       GetOrdProp
 0001:00021954       SetOrdProp
 0001:00021978       GetEnumProp
 0001:0002199C       SetEnumProp
 0001:000219C0       GetSetProp
 0001:000219EC       SetSetProp
 0001:00021A10       GetObjectProp
 0001:00021A34       SetObjectProp
 0001:00021A58       GetObjectPropClass
 0001:00021A70       GetStrProp
 0001:00021A94       SetStrProp
 0001:00021AB8       GetWideStrProp
 0001:00021ADC       SetWideStrProp
 0001:00021B3C       GetFloatProp
 0001:00021B64       SetFloatProp
 0001:00021B90       GetVariantProp
 0001:00021BB4       SetVariantProp
 0001:00021BD8       GetMethodProp
 0001:00021BFC       SetMethodProp
 0001:00021C20       GetInt64Prop
 0001:00021C50       SetInt64Prop
 0001:00021C78       GetPropValue
 0001:00021EE4       RangedValue
 0001:00021F4C       SetPropValue
 0001:00022214       FreeAndNilProperties
 0001:000222B8       TPublishableVariantType.GetProperty
 0001:00022328       TPublishableVariantType.SetProperty
 0001:00022350       GetTypeData
 0001:0002235C       GetEnumName
 0001:00022450       GetEnumNameValue
 0001:0002249C       GetEnumValue
 0001:00022500       GetPropInfo
 0001:00022570       GetPropInfo
 0001:000225A8       GetPropInfos
 0001:000225FC       SortPropList
 0001:000226A4       GetPropList
 0001:00022748       GetPropList
 0001:0002277C       GetPropList
 0001:00022794       IsStoredProp
 0001:000227C4       GetOrdProp
 0001:00022838       SetOrdProp
 0001:00022894       GetEnumProp
 0001:000228B8       SetEnumProp
 0001:00022908       GetSetProp
 0001:00022934       SetToString
 0001:00022A1C       NextWord
 0001:00022A60       StringToSet
 0001:00022B38       SetSetProp
 0001:00022B5C       GetObjectProp
 0001:00022B90       SetObjectProp
 0001:00022BCC       GetObjectPropClass
 0001:00022BD4       GetObjectPropClass
 0001:00022BFC       GetShortStrProp
 0001:00022C40       SetShortStrProp
 0001:00022C94       GetShortStrPropAsLongStr
 0001:00022CBC       SetShortStrPropAsLongStr
 0001:00022CF0       AssignLongStr
 0001:00022D04       GetLongStrProp
 0001:00022D44       SetLongStrProp
 0001:00022D84       GetWideStrPropAsLongStr
 0001:00022DDC       SetWideStrPropAsLongStr
 0001:00022E34       GetStrProp
 0001:00022E74       SetStrProp
 0001:00022EA0       GetWideStrProp
 0001:00022F88       SetWideStrProp
 0001:0002305C       GetFloatProp
 0001:00023174       SetFloatProp
 0001:0002336C       AssignVariant
 0001:00023380       GetVariantProp
 0001:000233C0       SetVariantProp
 0001:00023400       GetMethodProp
 0001:00023440       SetMethodProp
 0001:00023478       GetInt64Prop
 0001:000234A0       SetInt64Prop
 0001:000234DC       GetInterfaceProp
 0001:00023500       SetInterfaceProp
 0001:00023524       GetInterfaceProp
 0001:000235A4       SetInterfaceProp
 0001:00023618       Finalization
 0001:00023668       TypInfo
 0001:00025288       IsEqualIID
 0001:00025290       CoInitialize
 0001:00025298       CoUninitialize
 0001:000252A0       CoRegisterClassObject
 0001:000252A8       CoRevokeClassObject
 0001:000252B0       CoDisconnectObject
 0001:000252B8       CoLockObjectExternal
 0001:000252C0       CoMarshalInterThreadInterfaceInStream
 0001:000252C8       CoGetInterfaceAndReleaseStream
 0001:000252D0       CoCreateInstance
 0001:000252D8       StringFromCLSID
 0001:000252E0       CLSIDFromString
 0001:000252E8       ProgIDFromCLSID
 0001:000252F0       CLSIDFromProgID
 0001:000252F8       CoCreateGuid
 0001:00025300       CoTaskMemAlloc
 0001:00025308       CoTaskMemFree
 0001:00025310       SysFreeString
 0001:00025318       LHashValOfNameSys
 0001:00025320       DispGetIDsOfNames
 0001:00025328       DispInvoke
 0001:00025330       GetActiveObject
 0001:00025338       SetErrorInfo
 0001:00025340       GetErrorInfo
 0001:00025348       CreateErrorInfo
 0001:00025350       Succeeded
 0001:0002535C       Failed
 0001:00025368       ResultCode
 0001:00025370       ResultFacility
 0001:0002537C       ResultSeverity
 0001:00025380       MakeResult
 0001:00025390       LHashValOfName
 0001:0002539C       WHashValOfLHashVal
 0001:000253A4       IsHashValCompatible
 0001:000253B8       PROPSETHDR_OSVER_KIND
 0001:000253C0       PROPSETHDR_OSVER_MAJOR
 0001:000253C4       PROPSETHDR_OSVER_MINOR
 0001:000253CC       Finalization
 0001:000253FC       ActiveX
 0001:000283A4       Point
 0001:000283BC       SmallPoint
 0001:000283CC       PointsEqual
 0001:000283E0       PointsEqual
 0001:0002840C       Rect
 0001:00028434       Rect
 0001:00028454       Bounds
 0001:0002847C       InvalidPoint
 0001:00028488       InvalidPoint
 0001:0002849C       InvalidPoint
 0001:00028568       TRegGroup.AddClass
 0001:00028574       TRegGroup.BestClass
 0001:000285D4       TRegGroup.BestGroup
 0001:00028644       TRegGroup.Create
 0001:000286C0       TRegGroup.Destroy
 0001:00028700       TRegGroup.GetClass
 0001:00028760       TRegGroup.GetClasses
 0001:0002879C       TRegGroup.InGroup
 0001:000287E0       TRegGroup.RegisterClass
 0001:00028888       TRegGroup.RegisterClassAlias
 0001:000288AC       TRegGroup.Registered
 0001:000288C4       TRegGroup.UnregisterClass
 0001:00028908       PointerInModule
 0001:00028928       TRegGroup.UnregisterModuleClasses
 0001:000289CC       TRegGroups.Activate
 0001:00028A18       TRegGroups.Create
 0001:00028A8C       TRegGroups.Destroy
 0001:00028AE8       TRegGroups.FindGroup
 0001:00028B2C       TRegGroups.GetClass
 0001:00028B70       TRegGroups.GroupedWith
 0001:00028B90       Error
 0001:00028C20       TRegGroups.GroupWith
 0001:00028CE8       TRegGroups.Lock
 0001:00028CF4       TRegGroups.RegisterClass
 0001:00028D0C       TRegGroups.RegisterClassAlias
 0001:00028D2C       TRegGroups.Registered
 0001:00028D70       TRegGroups.StartGroup
 0001:00028DC0       TRegGroups.Unlock
 0001:00028DCC       TRegGroups.UnregisterClass
 0001:00028DFC       TRegGroups.UnregisterModuleClasses
 0001:00028E2C       TClassFinder.Create
 0001:00028F58       TClassFinder.Destroy
 0001:00028F88       TClassFinder.GetClass
 0001:00029010       TClassFinder.GetClasses
 0001:00029080       GetFieldClassTable
 0001:0002908C       ClassNotFound
 0001:000290F8       GetClass
 0001:0002914C       FindClass
 0001:0002916C       RegisterClass
 0001:000291DC       RegisterClasses
 0001:00029210       RegisterClassAlias
 0001:00029264       UnRegisterClass
 0001:000292B0       UnRegisterClasses
 0001:000292E4       UnRegisterModuleClasses
 0001:00029330       StartClassGroup
 0001:0002937C       GroupDescendentsWith
 0001:000293D0       ActivateClassGroup
 0001:0002942C       ClassGroupOf
 0001:00029480       ClassGroupOf
 0001:00029504       RegisterComponents
 0001:0002954C       RegisterNoIcon
 0001:00029590       RegisterNonActiveX
 0001:0002962C       TIntConst.Create
 0001:00029664       RegisterIntegerConsts
 0001:00029690       UnregisterIntegerConsts
 0001:00029718       FindIntToIdent
 0001:00029794       FindIdentToInt
 0001:00029810       IdentToInt
 0001:00029850       IntToIdent
 0001:00029894       RegisterFindGlobalComponentProc
 0001:000298D4       UnregisterFindGlobalComponentProc
 0001:000298EC       FindGlobalComponent
 0001:0002992C       IsUniqueGlobalComponentName
 0001:00029950       InternalReadComponentRes
 0001:000299D4       BeginGlobalLoading
 0001:00029A2C       NotifyGlobalLoading
 0001:00029A5C       EndGlobalLoading
 0001:00029AB8       InitComponent
 0001:00029B60       InitInheritedComponent
 0001:00029C24       InitComponentRes
 0001:00029C4C       ReadComponentRes
 0001:00029CF4       ReadComponentResEx
 0001:00029D80       ReadComponentResFile
 0001:00029DDC       WriteComponentResFile
 0001:00029E88       WriteCollection
 0001:00029EF4       CollectionsEqual
 0001:0002A018       LineStart
 0001:0002A038       ExtractStrings
 0001:0002A25C       TList.Destroy
 0001:0002A27C       TList.Add
 0001:0002A2B0       TList.Clear
 0001:0002A2C8       TList.Delete
 0001:0002A328       ReturnAddr
 0001:0002A32C       TList.Error
 0001:0002A364       TList.Error
 0001:0002A3B8       TList.Exchange
 0001:0002A408       TList.Expand
 0001:0002A420       TList.First
 0001:0002A428       TList.Get
 0001:0002A450       TList.Grow
 0001:0002A484       TList.IndexOf
 0001:0002A4A4       TList.Insert
 0001:0002A510       TList.Last
 0001:0002A51C       TList.Move
 0001:0002A574       TList.Put
 0001:0002A5C8       TList.Remove
 0001:0002A5E8       TList.Pack
 0001:0002A614       TList.SetCapacity
 0001:0002A650       TList.SetCount
 0001:0002A6C0       QuickSort
 0001:0002A744       TList.Sort
 0001:0002A764       TList.Extract
 0001:0002A7A0       TList.Notify
 0001:0002A7A4       TList.Assign
 0001:0002AA70       TThreadList.Create
 0001:0002AAC4       TThreadList.Destroy
 0001:0002AB40       TThreadList.Add
 0001:0002ABC8       TThreadList.Clear
 0001:0002AC10       TThreadList.LockList
 0001:0002AC24       TThreadList.Remove
 0001:0002AC74       TThreadList.UnlockList
 0001:0002AC80       TInterfaceList.Create
 0001:0002ACC4       TInterfaceList.Destroy
 0001:0002ACF8       TInterfaceList.Clear
 0001:0002AD68       TInterfaceList.Delete
 0001:0002ADC8       TInterfaceList.Expand
 0001:0002AE1C       TInterfaceList.First
 0001:0002AE30       TInterfaceList.Get
 0001:0002AEA4       TInterfaceList.GetCapacity
 0001:0002AEF4       TInterfaceList.GetCount
 0001:0002AF44       TInterfaceList.IndexOf
 0001:0002AF9C       TInterfaceList.Add
 0001:0002B00C       TInterfaceList.Insert
 0001:0002B074       TInterfaceList.Last
 0001:0002B0D0       TInterfaceList.Put
 0001:0002B144       TInterfaceList.Remove
 0001:0002B1C0       TInterfaceList.SetCapacity
 0001:0002B210       TInterfaceList.SetCount
 0001:0002B260       TInterfaceList.Exchange
 0001:0002B2B4       TInterfaceList.Lock
 0001:0002B2C0       TInterfaceList.Unlock
 0001:0002B2CC       TBits.Destroy
 0001:0002B2FC       TBits.Error
 0001:0002B314       Min
 0001:0002B320       TBits.SetSize
 0001:0002B3C4       TBits.SetBit
 0001:0002B3F0       TBits.GetBit
 0001:0002B408       TBits.OpenBit
 0001:0002B480       TPersistent.Destroy
 0001:0002B4AC       TPersistent.Assign
 0001:0002B4C0       TPersistent.AssignError
 0001:0002B590       TPersistent.AssignTo
 0001:0002B598       TPersistent.DefineProperties
 0001:0002B59C       TPersistent.GetNamePath
 0001:0002B64C       TPersistent.GetOwner
 0001:0002B650       TInterfacedPersistent.AfterConstruction
 0001:0002B6A0       TInterfacedPersistent._AddRef
 0001:0002B6C0       TInterfacedPersistent._Release
 0001:0002B6E0       TInterfacedPersistent.QueryInterface
 0001:0002B708       GetDesigner
 0001:0002B7A0       FindRootDesigner
 0001:0002B7BC       CountGenerations
 0001:0002B7E4       NotifyDesigner
 0001:0002B848       TRecall.Create
 0001:0002B898       TRecall.Destroy
 0001:0002B8D4       TRecall.Forget
 0001:0002B8E4       TRecall.Store
 0001:0002B8F8       TCollectionItem.Create
 0001:0002B930       TCollectionItem.Destroy
 0001:0002B960       TCollectionItem.Changed
 0001:0002B984       TCollectionItem.GetIndex
 0001:0002B99C       TCollectionItem.GetDisplayName
 0001:0002B9C4       TCollectionItem.GetNamePath
 0001:0002BA78       TCollectionItem.GetOwner
 0001:0002BA7C       TCollectionItem.SetCollection
 0001:0002BAA4       TCollectionItem.SetDisplayName
 0001:0002BAAC       TCollectionItem.SetIndex
 0001:0002BADC       TCollection.Create
 0001:0002BB28       TCollection.Destroy
 0001:0002BB74       TCollection.Add
 0001:0002BB94       TCollection.Assign
 0001:0002BC2C       TCollection.BeginUpdate
 0001:0002BC30       TCollection.Changed
 0001:0002BC40       TCollection.Clear
 0001:0002BCA8       TCollection.EndUpdate
 0001:0002BCB4       TCollection.FindItemID
 0001:0002BCE4       TCollection.GetAttrCount
 0001:0002BCE8       TCollection.GetAttr
 0001:0002BCF4       TCollection.GetItemAttr
 0001:0002BD14       TCollection.GetCount
 0001:0002BD1C       TCollection.GetItem
 0001:0002BD30       TCollection.GetNamePath
 0001:0002BDF8       TCollection.GetPropName
 0001:0002BF14       TCollection.Insert
 0001:0002BF30       TCollection.InsertItem
 0001:0002BF98       TCollection.RemoveItem
 0001:0002BFEC       TCollection.SetItem
 0001:0002C00C       TCollection.SetItemName
 0001:0002C010       TCollection.Update
 0001:0002C014       TCollection.Delete
 0001:0002C044       TCollection.Owner
 0001:0002C050       TCollection.Added
 0001:0002C054       TCollection.Deleting
 0001:0002C058       TCollection.Notify
 0001:0002C07C       TOwnedCollection.Create
 0001:0002C0C0       TOwnedCollection.GetOwner
 0001:0002C0C4       GetUltimateOwner
 0001:0002C0DC       GetUltimateOwner
 0001:0002C0F4       GetUltimateOwner
 0001:0002C100       TStrings.Destroy
 0001:0002C130       TStrings.Add
 0001:0002C154       TStrings.AddObject
 0001:0002C178       TStrings.Append
 0001:0002C180       TStrings.AddStrings
 0001:0002C238       TStrings.Assign
 0001:0002C2C8       TStrings.BeginUpdate
 0001:0002C2E0       DoWrite
 0001:0002C338       TStrings.DefineProperties
 0001:0002C384       TStrings.EndUpdate
 0001:0002C398       TStrings.Equals
 0001:0002C440       ReturnAddr
 0001:0002C444       TStrings.Error
 0001:0002C47C       TStrings.Error
 0001:0002C4D4       TStrings.Exchange
 0001:0002C5BC       TStrings.ExtractName
 0001:0002C600       TStrings.GetCapacity
 0001:0002C608       TStrings.GetCommaText
 0001:0002C690       TStrings.GetDelimitedText
 0001:0002C880       TStrings.GetName
 0001:0002C8E0       TStrings.GetObject
 0001:0002C8E4       TStrings.GetText
 0001:0002C938       TStrings.GetTextStr
 0001:0002CA60       TStrings.GetValue
 0001:0002CAEC       TStrings.IndexOf
 0001:0002CB78       TStrings.IndexOfName
 0001:0002CC40       TStrings.IndexOfObject
 0001:0002CC74       TStrings.InsertObject
 0001:0002CCA4       TStrings.LoadFromFile
 0001:0002CCF8       TStrings.LoadFromStream
 0001:0002CDA4       TStrings.Move
 0001:0002CE54       TStrings.Put
 0001:0002CE84       TStrings.PutObject
 0001:0002CE88       TStrings.ReadData
 0001:0002CF38       TStrings.SaveToFile
 0001:0002CF90       TStrings.SaveToStream
 0001:0002CFEC       TStrings.SetCapacity
 0001:0002CFF0       TStrings.SetCommaText
 0001:0002D014       TStrings.SetStringsAdapter
 0001:0002D048       TStrings.SetText
 0001:0002D098       TStrings.SetTextStr
 0001:0002D158       TStrings.SetUpdateState
 0001:0002D15C       TStrings.SetValue
 0001:0002D200       TStrings.WriteData
 0001:0002D284       TStrings.SetDelimitedText
 0001:0002D3E4       TStrings.GetDelimiter
 0001:0002D3FC       TStrings.GetQuoteChar
 0001:0002D414       TStrings.SetDelimiter
 0001:0002D430       TStrings.SetQuoteChar
 0001:0002D44C       TStrings.CompareStrings
 0001:0002D458       TStringList.Destroy
 0001:0002D4B4       TStringList.Add
 0001:0002D4C0       TStringList.AddObject
 0001:0002D524       TStringList.Changed
 0001:0002D540       TStringList.Changing
 0001:0002D55C       TStringList.Clear
 0001:0002D59C       TStringList.Delete
 0001:0002D608       TStringList.Exchange
 0001:0002D664       TStringList.ExchangeItems
 0001:0002D688       TStringList.Find
 0001:0002D700       TStringList.Get
 0001:0002D734       TStringList.GetCapacity
 0001:0002D738       TStringList.GetCount
 0001:0002D73C       TStringList.GetObject
 0001:0002D764       TStringList.Grow
 0001:0002D798       TStringList.IndexOf
 0001:0002D7D4       TStringList.Insert
 0001:0002D7E4       TStringList.InsertObject
 0001:0002D838       TStringList.InsertItem
 0001:0002D8B0       TStringList.Put
 0001:0002D90C       TStringList.PutObject
 0001:0002D94C       TStringList.QuickSort
 0001:0002D9E0       TStringList.SetCapacity
 0001:0002D9FC       TStringList.SetSorted
 0001:0002DA1C       TStringList.SetUpdateState
 0001:0002DA34       StringListCompareStrings
 0001:0002DA48       TStringList.Sort
 0001:0002DA58       TStringList.CustomSort
 0001:0002DA90       TStringList.CompareStrings
 0001:0002DAAC       TStringList.SetCaseSensitive
 0001:0002DAC4       TStream.GetPosition
 0001:0002DAE4       TStream.SetPosition
 0001:0002DAF8       TStream.GetSize
 0001:0002DB44       TStream.SetSize
 0001:0002DB48       TStream.SetSize64
 0001:0002DB5C       TStream.SetSize
 0001:0002DBB0       RaiseException
 0001:0002DBFC       TStream.Seek
 0001:0002DC80       TStream.Seek
 0001:0002DCF0       TStream.ReadBuffer
 0001:0002DD28       TStream.WriteBuffer
 0001:0002DD60       TStream.CopyFrom
 0001:0002DE54       TStream.ReadComponent
 0001:0002DEB4       TStream.WriteComponent
 0001:0002DEC0       TStream.WriteDescendent
 0001:0002DF1C       TStream.ReadComponentRes
 0001:0002DF38       TStream.WriteComponentRes
 0001:0002DF40       TStream.WriteResourceHeader
 0001:0002DFA4       TStream.FixupResourceHeader
 0001:0002DFE8       TStream.WriteDescendentRes
 0001:0002E01C       TStream.ReadResHeader
 0001:0002E090       THandleStream.Create
 0001:0002E0CC       THandleStream.Read
 0001:0002E0DC       THandleStream.Write
 0001:0002E0EC       THandleStream.Seek
 0001:0002E118       THandleStream.SetSize
 0001:0002E12C       THandleStream.SetSize
 0001:0002E154       TFileStream.Create
 0001:0002E198       TFileStream.Create
 0001:0002E260       TFileStream.Destroy
 0001:0002E294       TCustomMemoryStream.SetPointer
 0001:0002E29C       TCustomMemoryStream.Read
 0001:0002E2D4       TCustomMemoryStream.Seek
 0001:0002E2F8       TCustomMemoryStream.SaveToStream
 0001:0002E310       TCustomMemoryStream.SaveToFile
 0001:0002E368       TMemoryStream.Destroy
 0001:0002E394       TMemoryStream.Clear
 0001:0002E3AC       TMemoryStream.LoadFromStream
 0001:0002E3E4       TMemoryStream.LoadFromFile
 0001:0002E438       TMemoryStream.SetCapacity
 0001:0002E460       TMemoryStream.SetSize
 0001:0002E48C       TMemoryStream.Realloc
 0001:0002E518       TMemoryStream.Write
 0001:0002E568       TStringStream.Create
 0001:0002E5AC       TStringStream.Read
 0001:0002E5EC       TStringStream.Write
 0001:0002E624       TStringStream.Seek
 0001:0002E67C       TStringStream.ReadString
 0001:0002E6B8       TStringStream.WriteString
 0001:0002E6DC       TStringStream.SetSize
 0001:0002E6F8       TResourceStream.Create
 0001:0002E750       TResourceStream.CreateFromID
 0001:0002E7A0       Error
 0001:0002E810       TResourceStream.Initialize
 0001:0002E87C       TResourceStream.Destroy
 0001:0002E8B4       TResourceStream.Write
 0001:0002E8CC       TFiler.Create
 0001:0002E914       TFiler.Destroy
 0001:0002E93C       TFiler.SetRoot
 0001:0002EA18       TPropFixup.Create
 0001:0002EA70       TPropFixup.MakeGlobalReference
 0001:0002EAB8       TPropFixup.ResolveReference
 0001:0002EAC8       TPropIntfFixup.ResolveReference
 0001:0002EB4C       FindNestedComponent
 0001:0002EC14       AddFinished
 0001:0002EC4C       AddNotFinished
 0001:0002EC94       GlobalFixupReferences
 0001:0002EE3C       NameInStrings
 0001:0002EEC0       GetFixupReferenceNames
 0001:0002EF58       RedirectFixupReferences
 0001:0002EFF8       RemoveFixupReferences
 0001:0002F0A4       RemoveFixups
 0001:0002F128       GetFixupInstanceNames
 0001:0002F1CC       ReadError
 0001:0002F1E4       PropValueError
 0001:0002F1F0       PropertyNotFound
 0001:0002F21C       TReader.Destroy
 0001:0002F258       TReader.BeginReferences
 0001:0002F2C0       TReader.CheckValue
 0001:0002F2E4       TReader.DefineProperty
 0001:0002F318       TReader.DefineBinaryProperty
 0001:0002F3F4       TReader.EndOfList
 0001:0002F408       TReader.EndReferences
 0001:0002F424       TReader.Error
 0001:0002F444       TReader.FindMethod
 0001:0002F4AC       RemoveGlobalFixup
 0001:0002F528       TReader.DoFixupReferences
 0001:0002F648       TReader.FixupReferences
 0001:0002F680       TReader.FlushBuffer
 0001:0002F6A4       TReader.FreeFixups
 0001:0002F6E0       TReader.GetFieldClass
 0001:0002F774       TReader.GetPosition
 0001:0002F78C       TReader.NextValue
 0001:0002F79C       TReader.PropertyError
 0001:0002F7B0       TReader.Read
 0001:0002F7FC       TReader.ReadBuffer
 0001:0002F838       TReader.ReadBoolean
 0001:0002F84C       TReader.ReadChar
 0001:0002F8A4       TReader.ReadCollection
 0001:0002F950       ComponentCreated
 0001:0002F970       Recover
 0001:0002F9D0       CreateComponent
 0001:0002FAE0       SetCompName
 0001:0002FB80       FindExistingComponent
 0001:0002FC24       TReader.ReadComponent
 0001:0002FDFC       TReader.ReadData
 0001:0002FE6C       TReader.ReadDataInner
 0001:0002FF3C       TReader.ReadFloat
 0001:0002FF7C       TReader.ReadSingle
 0001:0002FFBC       TReader.ReadCurrency
 0001:00030008       TReader.ReadDate
 0001:00030048       TReader.ReadIdent
 0001:00030148       TReader.ReadInteger
 0001:000301B4       TReader.ReadInt64
 0001:000301F8       TReader.ReadListBegin
 0001:00030200       TReader.ReadListEnd
 0001:00030208       TReader.ReadPrefix
 0001:00030248       HandleException
 0001:00030348       PropPathError
 0001:00030364       TReader.ReadProperty
 0001:00030544       SetIntIdent
 0001:0003058C       SetObjectIdent
 0001:000305CC       SetVariantReference
 0001:00030628       SetInterfaceReference
 0001:000306E8       TReader.ReadPropValue
 0001:000309F0       FindUniqueName
 0001:00030A50       TReader.ReadRootComponent
 0001:00030D98       TReader.ReadComponents
 0001:00030E80       TReader.ReadSet
 0001:00030F3C       TReader.ReadSignature
 0001:00030F60       TReader.ReadStr
 0001:00030F9C       TReader.ReadString
 0001:00031058       TReader.ReadWideString
 0001:0003113C       TReader.ReadValue
 0001:00031150       TReader.SetPosition
 0001:00031170       TReader.SkipSetBody
 0001:000311B8       SkipList
 0001:000311E0       SkipBinary
 0001:00031210       SkipCollection
 0001:0003126C       TReader.SkipValue
 0001:00031408       CopySetBody
 0001:00031478       CopyList
 0001:000314C4       CopyBytes
 0001:00031554       CopyBinary
 0001:000315AC       TReader.CopyValue
 0001:00031774       TReader.SkipProperty
 0001:000317BC       TReader.SkipComponent
 0001:00031864       TReader.FindAncestorComponent
 0001:0003191C       TReader.ReferenceName
 0001:00031934       TReader.SetName
 0001:0003195C       TReader.FindComponentClass
 0001:000319D0       TReader.SkipBytes
 0001:00031A18       ReadCustomVariant
 0001:00031BD8       TReader.ReadVariant
 0001:00031DE4       TWriter.Destroy
 0001:00031E10       TWriter.AddAncestor
 0001:00031E1C       TWriter.DefineProperty
 0001:00031E44       TWriter.DefineBinaryProperty
 0001:00031E70       TWriter.GetPosition
 0001:00031E80       TWriter.FlushBuffer
 0001:00031E88       TWriter.SetPosition
 0001:00031EC4       TWriter.SetRoot
 0001:00031EDC       TWriter.Write
 0001:00031F28       TWriter.WriteBinary
 0001:00031FB0       TWriter.WriteBuffer
 0001:00031FC8       TWriter.WriteBoolean
 0001:00031FDC       TWriter.WriteChar
 0001:0003202C       TWriter.WriteCollection
 0001:000320CC       FindAncestor
 0001:0003211C       TWriter.WriteComponent
 0001:000321F8       TWriter.WriteData
 0001:000325F8       TWriter.WriteDescendent
 0001:00032620       TWriter.WriteFloat
 0001:00032644       TWriter.WriteSingle
 0001:00032668       TWriter.WriteCurrency
 0001:0003268C       TWriter.WriteDate
 0001:000326B0       TWriter.WriteIdent
 0001:00032774       TWriter.WriteInteger
 0001:000327E8       TWriter.WriteInteger
 0001:00032840       TWriter.WriteListBegin
 0001:00032848       TWriter.WriteListEnd
 0001:00032850       TWriter.WritePrefix
 0001:00032894       TWriter.WriteProperties
 0001:0003295C       AncestorValid
 0001:000329A4       WritePropPath
 0001:000329F8       WriteSet
 0001:00032A8C       WriteIntProp
 0001:00032AF8       WriteCollectionProp
 0001:00032B9C       IsDefaultValue
 0001:00032BF8       WriteOrdProp
 0001:00032CCC       IsDefaultValue
 0001:00032D24       WriteFloatProp
 0001:00032D70       IsDefaultValue
 0001:00032DC0       WriteInt64Prop
 0001:00032E08       IsDefault
 0001:00032E90       WriteStrProp
 0001:00032EFC       OwnedBy
 0001:00032F14       GetComponentValue
 0001:0003303C       ObjectAncestorMatch
 0001:00033084       IsDefault
 0001:000330E4       WriteObjectProp
 0001:00033314       IsDefaultValue
 0001:000333E8       WriteInterfaceProp
 0001:00033508       IsDefaultValue
 0001:0003358C       WriteMethodProp
 0001:00033640       IsDefaultValue
 0001:000336CC       WriteVariantProp
 0001:0003373C       TWriter.WriteProperty
 0001:00033854       TWriter.WriteVariant
 0001:00033C4C       TWriter.WritePropName
 0001:00033CA0       TWriter.WriteRootComponent
 0001:00033CA8       TWriter.WriteSignature
 0001:00033CB8       TWriter.WriteStr
 0001:00033D00       TWriter.WriteMinStr
 0001:00033D98       TWriter.WriteString
 0001:00033DEC       TWriter.WriteWideString
 0001:00033EA0       TWriter.WriteValue
 0001:00033EB4       BinToHex
 0001:00033EF0       HexToBin
 0001:00033F48       TParser.Create
 0001:00033FBC       TParser.Destroy
 0001:00033FF8       TParser.CheckToken
 0001:000340CC       TParser.CheckTokenSymbol
 0001:00034140       TParser.Error
 0001:00034148       TParser.ErrorFmt
 0001:000341A4       TParser.ErrorStr
 0001:000341E4       TParser.HexToBinary
 0001:0003429C       TParser.NextToken
 0001:00034544       TParser.ReadBuffer
 0001:0003460C       TParser.SkipBlanks
 0001:00034640       TParser.SourcePos
 0001:0003464C       TParser.TokenFloat
 0001:000346B8       TParser.TokenInt
 0001:00034714       TParser.TokenString
 0001:00034734       TParser.TokenWideString
 0001:00034798       TParser.TokenSymbolIs
 0001:000347FC       TParser.TokenComponentIdent
 0001:0003489C       WriteIndent
 0001:000348C8       WriteStr
 0001:000348F0       NewLine
 0001:0003491C       ConvertHeader
 0001:00034AE4       ConvertBinary
 0001:00034BB4       ConvertValue
 0001:0003541C       ConvertProperty
 0001:000354C8       ConvertObject
 0001:00035550       ObjectBinaryToText
 0001:0003564C       InternalBinaryToText
 0001:0003576C       InternalTextToBinary
 0001:00035880       ObjectBinaryToText
 0001:00035898       ConvertOrderModifier
 0001:000358F8       ConvertHeader
 0001:00035A08       CombineWideString
 0001:00035A94       ConvertValue
 0001:00035E2C       ConvertProperty
 0001:00035F00       ConvertObject
 0001:00036028       ObjectTextToBinary
 0001:000360E4       ObjectTextToBinary
 0001:000360FC       ObjectResourceToText
 0001:00036118       ObjectResourceToText
 0001:0003612C       NameLengthError
 0001:000361BC       ObjectTextToResource
 0001:00036318       ObjectTextToResource
 0001:0003632C       TestStreamFormat
 0001:000363A0       AddThread
 0001:00036408       RemoveThread
 0001:0003644C       CheckSynchronize
 0001:00036578       ThreadProc
 0001:00036618       TThread.Create
 0001:000366E8       TThread.Destroy
 0001:00036750       TThread.AfterConstruction
 0001:0003675C       TThread.CheckThreadError
 0001:000367D8       TThread.CheckThreadError
 0001:000367F0       TThread.CallOnTerminate
 0001:00036804       TThread.DoTerminate
 0001:00036818       TThread.GetPriority
 0001:00036854       TThread.SetPriority
 0001:00036880       TThread.Synchronize
 0001:000369BC       TThread.SetSuspended
 0001:000369D4       TThread.Suspend
 0001:000369F4       TThread.Resume
 0001:00036A1C       TThread.Terminate
 0001:00036A24       TThread.WaitFor
 0001:00036ABC       TComponent.Create
 0001:00036B08       TComponent.Destroy
 0001:00036B80       TComponent.BeforeDestruction
 0001:00036B8C       TComponent.FreeNotification
 0001:00036BE0       TComponent.ReadLeft
 0001:00036BF4       TComponent.ReadTop
 0001:00036C08       TComponent.WriteLeft
 0001:00036C14       TComponent.WriteTop
 0001:00036C20       TComponent.Insert
 0001:00036C4C       TComponent.Remove
 0001:00036C74       TComponent.InsertComponent
 0001:00036CCC       TComponent.RemoveComponent
 0001:00036D04       TComponent.DestroyComponents
 0001:00036D5C       TComponent.Destroying
 0001:00036D98       TComponent.RemoveNotification
 0001:00036DBC       TComponent.RemoveFreeNotification
 0001:00036DD8       TComponent.Notification
 0001:00036E34       TComponent.DefineProperties
 0001:00036EBC       TComponent.HasParent
 0001:00036EC0       TComponent.GetChildren
 0001:00036EC8       TComponent.GetChildOwner
 0001:00036ECC       TComponent.GetChildParent
 0001:00036ED0       TComponent.GetNamePath
 0001:00036EE4       TComponent.GetOwner
 0001:00036EE8       TComponent.SetChildOrder
 0001:00036EEC       TComponent.GetParentComponent
 0001:00036EF0       TComponent.SetParentComponent
 0001:00036EF4       TComponent.Updating
 0001:00036F00       TComponent.Updated
 0001:00036F0C       TComponent.Loaded
 0001:00036F18       TComponent.PaletteCreated
 0001:00036F1C       TComponent.ReadState
 0001:00036F24       TComponent.WriteState
 0001:00036F2C       TComponent.ValidateRename
 0001:00036FAC       TComponent.ValidateContainer
 0001:00036FC0       TComponent.ValidateInsert
 0001:00036FC4       TComponent.FindComponent
 0001:00037014       TComponent.SetName
 0001:000370A0       TComponent.ChangeName
 0001:000370B4       TComponent.GetComponentIndex
 0001:000370D0       TComponent.GetComponent
 0001:000370FC       TComponent.GetComponentCount
 0001:0003710C       TComponent.SetComponentIndex
 0001:00037160       TComponent.SetAncestor
 0001:000371A4       TComponent.SetDesigning
 0001:000371F4       TComponent.SetInline
 0001:0003720C       TComponent.SetDesignInstance
 0001:00037224       TComponent.SetReference
 0001:0003726C       TComponent.ExecuteAction
 0001:00037294       TComponent.UpdateAction
 0001:000372BC       TComponent.SetSubComponent
 0001:000372D0       TComponent.GetComObject
 0001:00037358       TComponent.SafeCallException
 0001:00037370       TComponent.FreeOnRelease
 0001:00037380       TComponent.UpdateRegistry
 0001:00037388       TComponent.QueryInterface
 0001:000373C8       TComponent._AddRef
 0001:000373E8       TComponent._Release
 0001:00037408       TComponent.GetTypeInfoCount
 0001:0003742C       TComponent.GetTypeInfo
 0001:00037458       TComponent.GetIDsOfNames
 0001:0003748C       TComponent.Invoke
 0001:000374D0       TComponent.IntfGetComponent
 0001:000374D4       TComponent.IsImplementorOf
 0001:00037554       TComponent.ReferenceInterface
 0001:000375FC       TBasicActionLink.Create
 0001:00037640       TBasicActionLink.AssignClient
 0001:00037644       TBasicActionLink.Destroy
 0001:00037678       TBasicActionLink.Change
 0001:00037690       TBasicActionLink.Execute
 0001:000376CC       TBasicActionLink.SetAction
 0001:000376F8       TBasicActionLink.IsOnExecuteLinked
 0001:000376FC       TBasicActionLink.SetOnExecute
 0001:00037704       TBasicActionLink.Update
 0001:00037710       TBasicAction.Create
 0001:00037754       TBasicAction.Destroy
 0001:000377AC       TBasicAction.HandlesTarget
 0001:000377B0       TBasicAction.ExecuteTarget
 0001:000377B4       TBasicAction.Notification
 0001:000377DC       TBasicAction.UpdateTarget
 0001:000377E0       TBasicAction.Execute
 0001:000377FC       TBasicAction.Update
 0001:00037818       TBasicAction.SetOnExecute
 0001:00037874       TBasicAction.Change
 0001:00037888       TBasicAction.RegisterChanges
 0001:00037894       TBasicAction.UnRegisterChanges
 0001:000378D4       TStreamAdapter.Create
 0001:0003791C       TStreamAdapter.Destroy
 0001:00037954       TStreamAdapter.Read
 0001:000379BC       TStreamAdapter.Write
 0001:00037A24       TStreamAdapter.Seek
 0001:00037AA8       TStreamAdapter.SetSize
 0001:00037B0C       TStreamAdapter.CopyTo
 0001:00037D0C       TStreamAdapter.Commit
 0001:00037D18       TStreamAdapter.Revert
 0001:00037D24       TStreamAdapter.LockRegion
 0001:00037D30       TStreamAdapter.UnlockRegion
 0001:00037D3C       TStreamAdapter.Stat
 0001:00037DB8       TStreamAdapter.Clone
 0001:00037DD0       FreeIntConstList
 0001:00037E3C       ModuleUnload
 0001:00037E44       TDataModule.Create
 0001:00037F84       TDataModule.AfterConstruction
 0001:00037F90       TDataModule.CreateNew
 0001:00037FEC       TDataModule.BeforeDestruction
 0001:00038018       TDataModule.Destroy
 0001:000380B4       TDataModule.DoCreate
 0001:00038114       TDataModule.DoDestroy
 0001:00038178       DoWriteWidth
 0001:000381A0       DoWriteHorizontalOffset
 0001:000381D4       DoWriteVerticalOffset
 0001:00038208       DoWriteHeight
 0001:00038230       TDataModule.DefineProperties
 0001:00038344       TDataModule.GetChildren
 0001:000383B0       TDataModule.HandleCreateException
 0001:000383D0       TDataModule.ReadState
 0001:000383E4       TDataModule.ReadWidth
 0001:000383F8       TDataModule.ReadHorizontalOffset
 0001:0003840C       TDataModule.ReadVerticalOffset
 0001:00038420       TDataModule.ReadHeight
 0001:00038434       TDataModule.WriteWidth
 0001:00038440       TDataModule.WriteHorizontalOffset
 0001:0003844C       TDataModule.WriteVerticalOffset
 0001:00038458       TDataModule.WriteHeight
 0001:00038464       StdWndProc
 0001:00038484       CalcJmpOffset
 0001:0003848C       MakeObjectInstance
 0001:00038524       FreeObjectInstance
 0001:00038548       AllocateHWnd
 0001:000385FC       DeallocateHWnd
 0001:00038624       Finalization
 0001:000386CC       Classes
 0001:00038A3C       TSynchroObject.Acquire
 0001:00038A40       TSynchroObject.Release
 0001:00038A44       THandleObject.Destroy
 0001:00038A74       TEvent.Create
 0001:00038ACC       TEvent.WaitFor
 0001:00038B14       TEvent.SetEvent
 0001:00038B20       TEvent.ResetEvent
 0001:00038B2C       TSimpleEvent.Create
 0001:00038B6C       TCriticalSection.Create
 0001:00038BAC       TCriticalSection.Destroy
 0001:00038BDC       TCriticalSection.Acquire
 0001:00038BE8       TCriticalSection.Release
 0001:00038BF4       TCriticalSection.Enter
 0001:00038BFC       TCriticalSection.Leave
 0001:00038C04       Finalization
 0001:00038C34       SyncObjs
 0001:00038CAC       Finalization
 0001:00038CDC       ComConst
 0001:000399BC       HandleSafeCallException
 0001:00039C18       TDispatchSilencer.Create
 0001:00039CB4       TDispatchSilencer.QueryInterface
 0001:00039D08       TDispatchSilencer.GetTypeInfoCount
 0001:00039D20       TDispatchSilencer.GetTypeInfo
 0001:00039D40       TDispatchSilencer.GetIDsOfNames
 0001:00039D68       TDispatchSilencer.Invoke
 0001:00039DA0       TComClassManager.Create
 0001:00039DE4       TComClassManager.Destroy
 0001:00039E14       TComClassManager.AddObjectFactory
 0001:00039E6C       TComClassManager.ForEachFactory
 0001:00039ED8       TComClassManager.GetFactoryFromClass
 0001:00039F8C       TComClassManager.GetFactoryFromClassID
 0001:0003A010       TComClassManager.RemoveObjectFactory
 0001:0003A08C       TComObject.Create
 0001:0003A0DC       TComObject.CreateAggregated
 0001:0003A130       TComObject.CreateFromFactory
 0001:0003A190       TComObject.Destroy
 0001:0003A1E0       TComObject.GetController
 0001:0003A1F4       TComObject.Initialize
 0001:0003A1F8       TComObject.SafeCallException
 0001:0003A3E4       TComObject.ObjQueryInterface
 0001:0003A40C       TComObject.ObjAddRef
 0001:0003A420       TComObject.ObjRelease
 0001:0003A448       TComObject.QueryInterface
 0001:0003A474       TComObject._AddRef
 0001:0003A498       TComObject._Release
 0001:0003A4BC       TComObject.InterfaceSupportsErrorInfo
 0001:0003A4E0       TComObjectFactory.Create
 0001:0003A5D0       TComObjectFactory.Destroy
 0001:0003A604       TComObjectFactory.CreateComObject
 0001:0003A614       TComObjectFactory.GetProgID
 0001:0003A68C       TComObjectFactory.RegisterClassObject
 0001:0003A71C       TComObjectFactory.UpdateRegistry
 0001:0003A99C       TComObjectFactory.GetLicenseString
 0001:0003A9C0       TComObjectFactory.HasMachineLicense
 0001:0003A9C4       TComObjectFactory.ValidateUserLicense
 0001:0003AA34       TComObjectFactory.QueryInterface
 0001:0003AA5C       TComObjectFactory._AddRef
 0001:0003AA70       TComObjectFactory._Release
 0001:0003AA84       TComObjectFactory.CreateInstance
 0001:0003AAA4       TComObjectFactory.LockServer
 0001:0003AADC       TComObjectFactory.GetLicInfo
 0001:0003AB98       TComObjectFactory.RequestLicKey
 0001:0003ABD0       TComObjectFactory.CreateInstanceLic
 0001:0003ADA8       TTypedComObject.GetClassInfo
 0001:0003ADD0       TTypedComObjectFactory.Create
 0001:0003AF2C       TTypedComObjectFactory.GetInterfaceTypeInfo
 0001:0003AFD4       TTypedComObjectFactory.UpdateRegistry
 0001:0003B1C8       TAutoObject.EventConnect
 0001:0003B228       TAutoObject.EventSinkChanged
 0001:0003B22C       TAutoObject.Initialize
 0001:0003B24C       TAutoObject.GetIDsOfNames
 0001:0003B270       TAutoObject.GetTypeInfo
 0001:0003B2A4       TAutoObject.GetTypeInfoCount
 0001:0003B2B8       TAutoObject.Invoke
 0001:0003B2FC       TAutoObjectFactory.Create
 0001:0003B4B8       TAutoObjectFactory.GetIntfEntry
 0001:0003B4D8       TAutoIntfObject.Create
 0001:0003B540       TAutoIntfObject.GetIDsOfNames
 0001:0003B560       TAutoIntfObject.GetTypeInfo
 0001:0003B590       TAutoIntfObject.GetTypeInfoCount
 0001:0003B5A4       TAutoIntfObject.Invoke
 0001:0003B5E4       TAutoIntfObject.InterfaceSupportsErrorInfo
 0001:0003B60C       TAutoIntfObject.SafeCallException
 0001:0003B61C       TrimPunctuation
 0001:0003B66C       EOleSysError.Create
 0001:0003B73C       EOleException.Create
 0001:0003B7D4       OleError
 0001:0003B7F0       OleCheck
 0001:0003B808       StringToGUID
 0001:0003B864       GUIDToString
 0001:0003B890       ProgIDToClassID
 0001:0003B8EC       ClassIDToProgID
 0001:0003B918       CreateRegKey
 0001:0003B9B0       DeleteRegKey
 0001:0003B9C8       GetRegStringValue
 0001:0003BA78       CreateComObject
 0001:0003BAB0       CreateRemoteComObject
 0001:0003BC14       CreateOleObject
 0001:0003BC5C       GetActiveOleObject
 0001:0003BCEC       StringToLPOLESTR
 0001:0003BD1C       CreateClassID
 0001:0003BD50       RegisterComServer
 0001:0003BE50       RegisterAsService
 0001:0003BF24       InterfaceConnect
 0001:0003BFD0       InterfaceDisconnect
 0001:0003C080       LoadComExProcs
 0001:0003C184       SafeCallError
 0001:0003C284       DispatchInvoke
 0001:0003C5C8       RaiseNameException
 0001:0003C5FC       GetIDsOfNames
 0001:0003C6DC       RaiseException
 0001:0003C6F4       VarDispInvoke
 0001:0003C790       DispCallError
 0001:0003C864       DispatchInvokeError
 0001:0003C870       ClearExcepInfo
 0001:0003C880       DispCall
 0001:0003C964       DispCallByID
 0001:0003CA40       GetDispatchPropValue
 0001:0003CAE0       GetDispatchPropValue
 0001:0003CB64       SetDispatchPropValue
 0001:0003CC0C       SetDispatchPropValue
 0001:0003CC90       ComClassManager
 0001:0003CCB0       InitComObj
 0001:0003CD28       Finalization
 0001:0003CDA8       ComObj
 0001:0003D0C0       TApartmentThread.Create
 0001:0003D18C       TApartmentThread.Destroy
 0001:0003D1BC       TApartmentThread.Execute
 0001:0003D2EC       TVCLAutoObject.Create
 0001:0003D330       TVCLAutoObject.Destroy
 0001:0003D36C       TVCLAutoObject.FreeOnRelease
 0001:0003D374       TVCLAutoObject.Initialize
 0001:0003D3AC       TVCLAutoObject.Invoke
 0001:0003D3E8       TVCLAutoObject.ObjQueryInterface
 0001:0003D428       TComponentFactory.Create
 0001:0003D474       TComponentFactory.CreateInstance
 0001:0003D548       TComponentFactory.UpdateRegistry
 0001:0003D5C8       TComponentFactory.CreateComObject
 0001:0003D5D8       CreateVCLComObject
 0001:0003D600       Finalization
 0001:0003D63C       VCLCom
 0001:0003D884       DivMod
 0001:0003D8A0       RoundTo
 0001:0003D8E8       SimpleRoundTo
 0001:0003D938       ArgError
 0001:0003D950       DegToRad
 0001:0003D97C       RadToDeg
 0001:0003D9A8       GradToRad
 0001:0003D9D4       RadToGrad
 0001:0003DA00       CycleToRad
 0001:0003DA2C       RadToCycle
 0001:0003DA58       DegToGrad
 0001:0003DA88       DegToCycle
 0001:0003DAB8       GradToDeg
 0001:0003DAE8       GradToCycle
 0001:0003DB18       CycleToDeg
 0001:0003DB48       CycleToGrad
 0001:0003DB78       LnXP1
 0001:0003DB9C       IntPower
 0001:0003DBCC       Compound
 0001:0003DBF8       Annuity2
 0001:0003DCF0       PolyX
 0001:0003DDE4       RelSmall
 0001:0003DE18       ArcCos
 0001:0003DE58       ArcSin
 0001:0003DE98       ArcTan2
 0001:0003DEA8       Tan
 0001:0003DEB8       Cotan
 0001:0003DEC8       Secant
 0001:0003DEDC       Cosecant
 0001:0003DEF0       Hypot
 0001:0003DF28       SinCos
 0001:0003DF3C       Frexp
 0001:0003DF6C       Ldexp
 0001:0003DF80       Ceil
 0001:0003DFB0       Floor
 0001:0003DFE0       Log10
 0001:0003DFF0       Log2
 0001:0003E000       LogN
 0001:0003E018       Poly
 0001:0003E050       Power
 0001:0003E118       CoshSinh
 0001:0003E14C       Cosh
 0001:0003E178       Sinh
 0001:0003E1A4       Tanh
 0001:0003E248       ArcCosh
 0001:0003E2E0       ArcSinh
 0001:0003E3B8       ArcTanh
 0001:0003E468       Cot
 0001:0003E48C       Sec
 0001:0003E4B0       Csc
 0001:0003E4D4       CotH
 0001:0003E504       SecH
 0001:0003E534       CscH
 0001:0003E564       ArcCot
 0001:0003E590       ArcSec
 0001:0003E5B8       ArcCsc
 0001:0003E5E0       ArcCotH
 0001:0003E610       ArcSecH
 0001:0003E640       ArcCscH
 0001:0003E670       IsNan
 0001:0003E6B4       IsInfinite
 0001:0003E6F8       Mean
 0001:0003E728       MinValue
 0001:0003E764       MinIntValue
 0001:0003E780       Min
 0001:0003E788       Min
 0001:0003E7C8       Min
 0001:0003E7F0       Min
 0001:0003E824       Min
 0001:0003E86C       MaxValue
 0001:0003E8A8       MaxIntValue
 0001:0003E8C4       Max
 0001:0003E8CC       Max
 0001:0003E90C       Max
 0001:0003E934       Max
 0001:0003E968       Max
 0001:0003E9B0       Sign
 0001:0003E9C8       Sign
 0001:0003E9FC       Sign
 0001:0003EA44       CompareValue
 0001:0003EA90       CompareValue
 0001:0003EAC8       CompareValue
 0001:0003EAF8       CompareValue
 0001:0003EB0C       CompareValue
 0001:0003EB44       SameValue
 0001:0003EBA8       SameValue
 0001:0003EC08       SameValue
 0001:0003EC68       IsZero
 0001:0003ECA8       IsZero
 0001:0003ECE0       IsZero
 0001:0003ED10       IfThen
 0001:0003ED1C       IfThen
 0001:0003ED4C       IfThen
 0001:0003ED7C       RandomRange
 0001:0003EDA4       RandomFrom
 0001:0003EDB8       RandomFrom
 0001:0003EDE4       RandomFrom
 0001:0003EE0C       InRange
 0001:0003EE1C       InRange
 0001:0003EE54       InRange
 0001:0003EE78       EnsureRange
 0001:0003EE88       EnsureRange
 0001:0003EEE8       EnsureRange
 0001:0003EF34       MeanAndStdDev
 0001:0003EFB8       MomentSkewKurtosis
 0001:0003F164       Norm
 0001:0003F188       PopnStdDev
 0001:0003F1AC       PopnVariance
 0001:0003F1DC       RandG
 0001:0003F268       StdDev
 0001:0003F28C       SumInt
 0001:0003F2E4       RaiseOverflowError
 0001:0003F338       Sum
 0001:0003F388       SumOfSquares
 0001:0003F3C0       SumsAndSquares
 0001:0003F434       TotalVariance
 0001:0003F470       Variance
 0001:0003F49C       DoubleDecliningBalance
 0001:0003F590       SLNDepreciation
 0001:0003F5E0       SYDDepreciation
 0001:0003F64C       ConditionP
 0001:0003F6AC       InternalRateOfReturn
 0001:0003F838       NetPresentValue
 0001:0003F8DC       PaymentParts
 0001:0003F9A4       FutureValue
 0001:0003FA44       InterestPayment
 0001:0003FAF8       InterestRate
 0001:0003FE74       NumberOfPeriods
 0001:0003FFA8       Payment
 0001:00040068       PeriodPayment
 0001:000400F4       PresentValue
 0001:000401B0       GetRoundMode
 0001:000401C0       SetRoundMode
 0001:000401EC       GetPrecisionMode
 0001:000401FC       SetPrecisionMode
 0001:00040228       GetExceptionMask
 0001:00040238       SetExceptionMask
 0001:00040260       ClearExceptions
 0001:00040264       Finalization
 0001:00040294       Math
 0001:000409A4       RaiseListError
 0001:000409C8       TObjectList.Add
 0001:000409D0       TObjectList.Create
 0001:00040A0C       TObjectList.Create
 0001:00040A50       TObjectList.Extract
 0001:00040A64       TObjectList.FindInstanceOf
 0001:00040AD4       TObjectList.First
 0001:00040AE0       TObjectList.GetItem
 0001:00040AF4       TObjectList.IndexOf
 0001:00040AFC       TObjectList.Insert
 0001:00040B04       TObjectList.Last
 0001:00040B10       TObjectList.Notify
 0001:00040B3C       TObjectList.Remove
 0001:00040B44       TObjectList.SetItem
 0001:00040C0C       TComponentListNexus.Notification
 0001:00040C3C       TComponentList.Add
 0001:00040C44       TComponentList.Destroy
 0001:00040C74       TComponentList.Extract
 0001:00040C88       TComponentList.First
 0001:00040C94       TComponentList.GetItems
 0001:00040CA8       TComponentList.HandleFreeNotify
 0001:00040CB0       TComponentList.IndexOf
 0001:00040CB8       TComponentList.Insert
 0001:00040CC0       TComponentList.Last
 0001:00040CCC       TComponentList.Notify
 0001:00040D34       TComponentList.Remove
 0001:00040D3C       TComponentList.SetItems
 0001:00040D44       TClassList.Add
 0001:00040D4C       TClassList.Extract
 0001:00040D60       TClassList.First
 0001:00040D6C       TClassList.GetItems
 0001:00040D80       TClassList.IndexOf
 0001:00040D88       TClassList.Insert
 0001:00040D90       TClassList.Last
 0001:00040D9C       TClassList.Remove
 0001:00040DA4       TClassList.SetItems
 0001:00040DAC       TOrderedList.AtLeast
 0001:00040DB8       TOrderedList.Peek
 0001:00040DC0       TOrderedList.Pop
 0001:00040DC8       TOrderedList.Push
 0001:00040DD8       TOrderedList.Count
 0001:00040DE0       TOrderedList.Create
 0001:00040E24       TOrderedList.Destroy
 0001:00040E54       TOrderedList.PeekItem
 0001:00040E68       TOrderedList.PopItem
 0001:00040E88       TStack.PushItem
 0001:00040E94       TObjectStack.Peek
 0001:00040EA0       TObjectStack.Pop
 0001:00040EAC       TObjectStack.Push
 0001:00040EC0       TQueue.PushItem
 0001:00040ED0       TObjectQueue.Peek
 0001:00040EDC       TObjectQueue.Pop
 0001:00040EE8       TObjectQueue.Push
 0001:00040EFC       TCustomBucketList.Add
 0001:00040FD0       TCustomBucketList.AddItem
 0001:0004105C       AssignProc
 0001:00041068       TCustomBucketList.Assign
 0001:00041088       TCustomBucketList.Clear
 0001:00041130       TCustomBucketList.DeleteItem
 0001:00041184       TCustomBucketList.Destroy
 0001:000411B0       TCustomBucketList.Exists
 0001:000411C8       TCustomBucketList.Find
 0001:00041204       TCustomBucketList.FindItem
 0001:00041258       TCustomBucketList.ForEach
 0001:00041314       TCustomBucketList.GetData
 0001:000413B0       TCustomBucketList.Remove
 0001:00041444       TCustomBucketList.SetBucketCount
 0001:0004146C       TCustomBucketList.SetData
 0001:0004150C       TBucketList.BucketFor
 0001:00041520       TBucketList.Create
 0001:0004157C       TObjectBucketList.Add
 0001:00041594       TObjectBucketList.GetData
 0001:000415A8       TObjectBucketList.Remove
 0001:000415BC       TObjectBucketList.SetData
 0001:000415C4       Finalization
 0001:000415F4       Contnrs
 0001:000419E8       RaiseConversionError
 0001:00041A00       RaiseConversionError
 0001:00041A24       RaiseConversionRegError
 0001:00041AA8       GetConvFamilyInfo
 0001:00041B20       GetConvInfo
 0001:00041B98       GetConvInfo
 0001:00041BE4       GetConvInfo
 0001:00041C5C       ConvTypeToFamily
 0001:00041D10       TryConvTypeToFamily
 0001:00041D2C       ConvTypeToFamily
 0001:00041DD4       TryConvTypeToFamily
 0001:00041E28       CompatibleConversionTypes
 0001:00041E34       CompatibleConversionType
 0001:00041EF4       Convert
 0001:00041FC4       Convert
 0001:00042004       ConvertFrom
 0001:000420C8       ConvertTo
 0001:0004218C       ConvUnitAdd
 0001:00042290       ConvUnitDiff
 0001:000422C0       ConvUnitInc
 0001:000422E8       ConvUnitInc
 0001:000423B8       ConvUnitDec
 0001:000423E0       ConvUnitDec
 0001:0004240C       ConvUnitWithinPrevious
 0001:0004244C       ConvUnitWithinNext
 0001:0004248C       ConvUnitCompareValue
 0001:0004256C       ConvUnitSameValue
 0001:0004264C       RegisterConversionType
 0001:0004270C       RegisterConversionType
 0001:00042758       RegisterConversionType
 0001:000427AC       FreeConversionType
 0001:000427D8       UnregisterConversionType
 0001:00042820       RegisterConversionFamily
 0001:00042934       UnregisterConversionFamily
 0001:00042A1C       CleanUpLists
 0001:00042B2C       TConvFamilyInfo.Create
 0001:00042B7C       TConvTypeInfo.Create
 0001:00042C70       TConvTypeFactor.Create
 0001:00042D34       TConvTypeFactor.FromCommon
 0001:00042D50       TConvTypeFactor.ToCommon
 0001:00042D6C       TConvTypeProcs.Create
 0001:00042DB8       TConvTypeProcs.FromCommon
 0001:00042DD8       TConvTypeProcs.ToCommon
 0001:00042DF8       StrToConvUnit
 0001:00042E84       TryStrToConvUnit
 0001:00042FAC       ConvUnitToStr
 0001:00043028       GetConvTypes
 0001:0004311C       GetConvFamilies
 0001:000431E4       ConvTypeToDescription
 0001:00043280       ConvFamilyToDescription
 0001:0004331C       DescriptionToConvType
 0001:000433C4       DescriptionToConvType
 0001:00043470       DescriptionToConvFamily
 0001:00043508       Finalization
 0001:0004357C       ConvUtils
 0001:000435D0       DateOf
 0001:000435F4       TimeOf
 0001:00043610       IsInLeapYear
 0001:00043628       IsPM
 0001:00043644       IsValidDate
 0001:00043684       IsValidTime
 0001:000436C4       IsValidDateTime
 0001:00043708       IsValidDateMonthWeek
 0001:0004374C       IsValidDateDay
 0001:0004377C       IsValidDateWeek
 0001:000437BC       DaysInYear
 0001:000437D4       DaysInAYear
 0001:000437EC       DaysInMonth
 0001:0004381C       DaysInAMonth
 0001:00043854       WeeksInYear
 0001:0004386C       WeeksInAYear
 0001:000438B0       Today
 0001:000438C4       Yesterday
 0001:000438E0       Tomorrow
 0001:000438FC       IsToday
 0001:0004391C       IsSameDay
 0001:00043968       YearOf
 0001:0004398C       MonthOf
 0001:000439B0       WeekOf
 0001:000439C4       DayOf
 0001:000439E8       HourOf
 0001:00043A10       MinuteOf
 0001:00043A38       SecondOf
 0001:00043A60       MilliSecondOf
 0001:00043A88       StartOfTheYear
 0001:00043AB4       EndOfTheYear
 0001:00043AEC       StartOfTheMonth
 0001:00043B24       EndOfTheMonth
 0001:00043B74       StartOfTheWeek
 0001:00043BB4       EndOfTheWeek
 0001:00043BE8       StartOfTheDay
 0001:00043C0C       EndOfTheDay
 0001:00043C3C       StartOfAYear
 0001:00043C58       EndOfAYear
 0001:00043C84       StartOfAMonth
 0001:00043C9C       EndOfAMonth
 0001:00043CD4       StartOfAWeek
 0001:00043CE8       EndOfAWeek
 0001:00043D18       StartOfADay
 0001:00043D2C       EndOfADay
 0001:00043D58       StartOfADay
 0001:00043D94       EndOfADay
 0001:00043DD0       MonthOfTheYear
 0001:00043DE4       WeekOfTheYear
 0001:00043E08       WeekOfTheYear
 0001:00043E28       DayOfTheYear
 0001:00043E44       HourOfTheYear
 0001:00043E74       MinuteOfTheYear
 0001:00043EA0       SecondOfTheYear
 0001:00043ECC       MilliSecondOfTheYear
 0001:00043F0C       WeekOfTheMonth
 0001:00043F34       WeekOfTheMonth
 0001:00043F54       DayOfTheMonth
 0001:00043F68       HourOfTheMonth
 0001:00043F98       MinuteOfTheMonth
 0001:00043FC4       SecondOfTheMonth
 0001:00043FF0       MilliSecondOfTheMonth
 0001:0004401C       DayOfTheWeek
 0001:00044048       HourOfTheWeek
 0001:00044078       MinuteOfTheWeek
 0001:000440A4       SecondOfTheWeek
 0001:000440D0       MilliSecondOfTheWeek
 0001:000440FC       HourOfTheDay
 0001:00044110       MinuteOfTheDay
 0001:00044140       SecondOfTheDay
 0001:0004417C       MilliSecondOfTheDay
 0001:000441C4       MinuteOfTheHour
 0001:000441D8       SecondOfTheHour
 0001:00044208       MilliSecondOfTheHour
 0001:00044248       SecondOfTheMinute
 0001:0004425C       MilliSecondOfTheMinute
 0001:00044290       MilliSecondOfTheSecond
 0001:000442A4       WithinPastYears
 0001:000442C8       WithinPastMonths
 0001:000442EC       WithinPastWeeks
 0001:00044310       WithinPastDays
 0001:00044334       WithinPastHours
 0001:0004435C       WithinPastMinutes
 0001:00044384       WithinPastSeconds
 0001:000443AC       WithinPastMilliSeconds
 0001:000443D4       YearsBetween
 0001:000443F4       MonthsBetween
 0001:00044414       WeeksBetween
 0001:00044434       DaysBetween
 0001:00044454       HoursBetween
 0001:00044484       MinutesBetween
 0001:000444B4       SecondsBetween
 0001:000444E4       MilliSecondsBetween
 0001:00044514       SpanOfNowAndThen
 0001:00044544       YearSpan
 0001:00044570       MonthSpan
 0001:0004459C       WeekSpan
 0001:000445CC       DaySpan
 0001:000445F0       HourSpan
 0001:00044620       MinuteSpan
 0001:00044650       SecondSpan
 0001:00044680       MilliSecondSpan
 0001:000446B0       IncYear
 0001:000446D4       IncWeek
 0001:000446F8       IncDay
 0001:00044714       IncHour
 0001:00044740       IncMinute
 0001:0004476C       IncSecond
 0001:00044798       IncMilliSecond
 0001:000447C4       EncodeDateTime
 0001:0004482C       DecodeDateTime
 0001:0004485C       EncodeDateWeek
 0001:00044890       DecodeDateWeek
 0001:0004499C       EncodeDateDay
 0001:000449C8       DecodeDateDay
 0001:000449F4       EncodeDateMonthWeek
 0001:00044A38       DecodeDateMonthWeek
 0001:00044B60       TryEncodeDateTime
 0001:00044BAC       TryEncodeDateWeek
 0001:00044C38       TryEncodeDateDay
 0001:00044C7C       TryEncodeDateMonthWeek
 0001:00044D10       RecodeYear
 0001:00044D4C       RecodeMonth
 0001:00044D88       RecodeDay
 0001:00044DC4       RecodeHour
 0001:00044E00       RecodeMinute
 0001:00044E3C       RecodeSecond
 0001:00044E78       RecodeMilliSecond
 0001:00044EB4       RecodeDate
 0001:00044EEC       RecodeTime
 0001:00044F24       RecodeDateTime
 0001:00044F94       TryRecodeDateTime
 0001:0004505C       CompareDateTime
 0001:0004509C       SameDateTime
 0001:000450C8       CompareDate
 0001:00045104       SameDate
 0001:0004512C       CompareTime
 0001:00045198       SameTime
 0001:000451DC       NthDayOfWeek
 0001:000451FC       DecodeDayOfWeekInMonth
 0001:0004523C       EncodeDayOfWeekInMonth
 0001:00045280       TryEncodeDayOfWeekInMonth
 0001:000452F8       DateTimeToJulianDate
 0001:000453B8       JulianDateToDateTime
 0001:00045444       TryJulianDateToDateTime
 0001:00045538       DateTimeToModifiedJulianDate
 0001:00045560       ModifiedJulianDateToDateTime
 0001:0004558C       TryModifiedJulianDateToDateTime
 0001:000455AC       DateTimeToUnix
 0001:000455E0       UnixToDateTime
 0001:0004560C       Translate
 0001:00045660       InvalidDateTimeError
 0001:00045820       InvalidDateWeekError
 0001:000458AC       InvalidDateDayError
 0001:0004592C       InvalidDateMonthWeekError
 0001:000459C4       InvalidDayOfWeekInMonthError
 0001:00045A5C       Finalization
 0001:00045A8C       DateUtils
 0001:00045FC0       TCustomIniFile.Create
 0001:00045FFC       TCustomIniFile.SectionExists
 0001:00046068       TCustomIniFile.ReadInteger
 0001:0004612C       TCustomIniFile.WriteInteger
 0001:00046188       TCustomIniFile.ReadBool
 0001:000461B4       TCustomIniFile.ReadDate
 0001:0004626C       TCustomIniFile.ReadDateTime
 0001:00046324       TCustomIniFile.ReadFloat
 0001:000463DC       TCustomIniFile.ReadTime
 0001:00046494       TCustomIniFile.WriteDate
 0001:000464F4       TCustomIniFile.WriteDateTime
 0001:00046554       TCustomIniFile.WriteFloat
 0001:000465B8       TCustomIniFile.WriteTime
 0001:00046630       TCustomIniFile.WriteBool
 0001:0004664C       TCustomIniFile.ValueExists
 0001:000466BC       TCustomIniFile.ReadBinaryStream
 0001:0004682C       TCustomIniFile.WriteBinaryStream
 0001:000469A0       TStringHash.Add
 0001:00046A00       TStringHash.Clear
 0001:00046A48       TStringHash.Create
 0001:00046A98       TStringHash.Destroy
 0001:00046AC4       TStringHash.Find
 0001:00046B0C       TStringHash.HashOf
 0001:00046B40       TStringHash.Modify
 0001:00046B68       TStringHash.Remove
 0001:00046B88       TStringHash.ValueOf
 0001:00046BAC       THashedStringList.Changed
 0001:00046BC0       THashedStringList.Destroy
 0001:00046BF8       THashedStringList.IndexOf
 0001:00046C68       THashedStringList.IndexOfName
 0001:00046CD8       THashedStringList.UpdateNameHash
 0001:00046DF8       THashedStringList.UpdateValueHash
 0001:00046ECC       TMemIniFile.Create
 0001:00046F18       TMemIniFile.Destroy
 0001:00046F54       TMemIniFile.AddSection
 0001:00046FC4       TMemIniFile.Clear
 0001:00046FFC       TMemIniFile.DeleteKey
 0001:00047038       TMemIniFile.EraseSection
 0001:00047068       TMemIniFile.GetCaseSensitive
 0001:00047070       TMemIniFile.GetStrings
 0001:000471B8       TMemIniFile.LoadValues
 0001:0004722C       TMemIniFile.ReadSection
 0001:000472F8       TMemIniFile.ReadSections
 0001:00047308       TMemIniFile.ReadSectionValues
 0001:0004737C       TMemIniFile.ReadString
 0001:00047424       TMemIniFile.Rename
 0001:00047448       TMemIniFile.SetCaseSensitive
 0001:000474AC       TMemIniFile.SetStrings
 0001:00047654       TMemIniFile.UpdateFile
 0001:000476B0       TMemIniFile.WriteString
 0001:00047770       TIniFile.Destroy
 0001:0004779C       TIniFile.ReadString
 0001:000477FC       TIniFile.WriteString
 0001:00047868       TIniFile.ReadSections
 0001:00047968       TIniFile.ReadSection
 0001:00047A70       TIniFile.ReadSectionValues
 0001:00047BBC       TIniFile.EraseSection
 0001:00047C10       TIniFile.DeleteKey
 0001:00047C40       TIniFile.UpdateFile
 0001:00047C5C       Finalization
 0001:00047CA4       IniFiles
 0001:00047DA4       InvalidMask
 0001:00047DF4       Reset
 0001:00047E40       WriteScan
 0001:00047F84       ScanSet
 0001:00048090       InitMaskStates
 0001:00048148       Push
 0001:00048170       Pop
 0001:000481B0       Matches
 0001:00048354       MatchesMaskStates
 0001:000483C4       DoneMaskStates
 0001:000483EC       TMask.Create
 0001:00048458       TMask.Destroy
 0001:00048494       TMask.Matches
 0001:000484A4       MatchesMask
 0001:00048500       Finalization
 0001:00048530       Masks
 0001:0004882C       ReadError
 0001:00048858       IsRelative
 0001:0004886C       RegDataToDataType
 0001:0004889C       DataTypeToRegData
 0001:000488C4       TRegistry.Create
 0001:00048908       TRegistry.Create
 0001:00048944       TRegistry.Destroy
 0001:00048970       TRegistry.CloseKey
 0001:000489A0       TRegistry.SetRootKey
 0001:000489CC       TRegistry.ChangeKey
 0001:000489F0       TRegistry.GetBaseKey
 0001:00048A04       TRegistry.SetCurrentKey
 0001:00048A08       TRegistry.CreateKey
 0001:00048AE4       TRegistry.OpenKey
 0001:00048C08       TRegistry.OpenKeyReadOnly
 0001:00048DC0       TRegistry.DeleteKey
 0001:00048F38       TRegistry.DeleteValue
 0001:00048F58       TRegistry.GetKeyInfo
 0001:00048FC0       TRegistry.GetKeyNames
 0001:00049088       TRegistry.GetValueNames
 0001:00049150       TRegistry.GetDataInfo
 0001:000491A0       TRegistry.GetDataSize
 0001:000491C8       TRegistry.GetDataType
 0001:000491EC       TRegistry.WriteString
 0001:00049218       TRegistry.WriteExpandString
 0001:00049244       TRegistry.ReadString
 0001:000492BC       TRegistry.WriteInteger
 0001:000492D0       TRegistry.ReadInteger
 0001:00049300       TRegistry.WriteBool
 0001:0004930C       TRegistry.ReadBool
 0001:00049324       TRegistry.WriteFloat
 0001:00049338       TRegistry.ReadFloat
 0001:0004936C       TRegistry.WriteCurrency
 0001:00049380       TRegistry.ReadCurrency
 0001:000493B4       TRegistry.WriteDateTime
 0001:000493C8       TRegistry.ReadDateTime
 0001:000493FC       TRegistry.WriteDate
 0001:00049410       TRegistry.ReadDate
 0001:00049424       TRegistry.WriteTime
 0001:00049438       TRegistry.ReadTime
 0001:0004944C       TRegistry.WriteBinaryData
 0001:00049460       TRegistry.ReadBinaryData
 0001:000494C4       TRegistry.PutData
 0001:0004952C       TRegistry.GetData
 0001:000495A0       TRegistry.HasSubKeys
 0001:000495C4       TRegistry.ValueExists
 0001:000495D4       TRegistry.GetKey
 0001:0004966C       TRegistry.RegistryConnect
 0001:000496A4       TRegistry.LoadKey
 0001:00049730       TRegistry.UnLoadKey
 0001:000497B0       TRegistry.RestoreKey
 0001:00049818       TRegistry.ReplaceKey
 0001:000498B8       TRegistry.SaveKey
 0001:00049920       TRegistry.KeyExists
 0001:0004998C       TRegistry.RenameValue
 0001:00049A34       MoveValue
 0001:00049B54       CopyValues
 0001:00049C7C       CopyKeys
 0001:00049EC8       TRegistry.MoveKey
 0001:00049FBC       TRegIniFile.Create
 0001:00049FF8       TRegIniFile.Create
 0001:0004A050       TRegIniFile.ReadString
 0001:0004A11C       TRegIniFile.WriteString
 0001:0004A1CC       TRegIniFile.ReadInteger
 0001:0004A2CC       TRegIniFile.WriteInteger
 0001:0004A3BC       TRegIniFile.ReadBool
 0001:0004A400       TRegIniFile.WriteBool
 0001:0004A4BC       TRegIniFile.ReadSection
 0001:0004A558       TRegIniFile.ReadSections
 0001:0004A560       TRegIniFile.ReadSectionValues
 0001:0004A684       TRegIniFile.EraseSection
 0001:0004A68C       TRegIniFile.DeleteKey
 0001:0004A728       TRegistryIniFile.Create
 0001:0004A764       TRegistryIniFile.Create
 0001:0004A7BC       TRegistryIniFile.Destroy
 0001:0004A7EC       TRegistryIniFile.ReadString
 0001:0004A814       TRegistryIniFile.ReadDate
 0001:0004A8E8       TRegistryIniFile.ReadDateTime
 0001:0004A9BC       TRegistryIniFile.ReadFloat
 0001:0004AA90       TRegistryIniFile.ReadInteger
 0001:0004ABB4       TRegistryIniFile.ReadTime
 0001:0004AC88       TRegistryIniFile.ReadBinaryStream
 0001:0004AE54       TRegistryIniFile.WriteDate
 0001:0004AF0C       TRegistryIniFile.WriteDateTime
 0001:0004AFC4       TRegistryIniFile.WriteFloat
 0001:0004B07C       TRegistryIniFile.WriteInteger
 0001:0004B198       TRegistryIniFile.WriteTime
 0001:0004B250       TRegistryIniFile.WriteBinaryStream
 0001:0004B3D8       TRegistryIniFile.WriteString
 0001:0004B3F0       TRegistryIniFile.ReadSection
 0001:0004B3FC       TRegistryIniFile.ReadSections
 0001:0004B408       TRegistryIniFile.ReadSectionValues
 0001:0004B414       TRegistryIniFile.EraseSection
 0001:0004B420       TRegistryIniFile.DeleteKey
 0001:0004B42C       TRegistryIniFile.UpdateFile
 0001:0004B430       Finalization
 0001:0004B478       Registry
 0001:0004B8C8       FahrenheitToCelsius
 0001:0004B8FC       CelsiusToFahrenheit
 0001:0004B930       KelvinToCelsius
 0001:0004B958       CelsiusToKelvin
 0001:0004B980       RankineToCelsius
 0001:0004B9B4       CelsiusToRankine
 0001:0004B9E8       ReaumurToCelsius
 0001:0004BA24       CelsiusToReaumur
 0001:0004BA64       ConvDateTimeToJulianDate
 0001:0004BA84       ConvJulianDateToDateTime
 0001:0004BAA4       ConvDateTimeToModifiedJulianDate
 0001:0004BAC4       ConvModifiedJulianDateToDateTime
 0001:0004BAE4       Finalization
 0001:0004BB58       StdConvs
 0001:0004D4C8       Finalization
 0001:0004D4F8       StdVCL
 0001:0004D5B0       AnsiResemblesText
 0001:0004D5C8       AnsiContainsText
 0001:0004D638       AnsiStartsText
 0001:0004D684       AnsiEndsText
 0001:0004D6D0       AnsiReplaceStr
 0001:0004D6FC       AnsiReplaceText
 0001:0004D728       AnsiMatchText
 0001:0004D744       AnsiIndexText
 0001:0004D78C       AnsiContainsStr
 0001:0004D7A4       AnsiStartsStr
 0001:0004D808       AnsiEndsStr
 0001:0004D89C       AnsiMatchStr
 0001:0004D8B8       AnsiIndexStr
 0001:0004D900       DupeString
 0001:0004D940       ReverseString
 0001:0004D97C       StuffString
 0001:0004DA04       RandomFrom
 0001:0004DA24       IfThen
 0001:0004DA8C       LeftStr
 0001:0004DAA8       RightStr
 0001:0004DACC       MidStr
 0001:0004DAF0       FindNextWordStart
 0001:0004DB78       SearchBuf
 0001:0004DD4C       Score
 0001:0004DD64       Soundex
 0001:0004DE90       SoundexInt
 0001:0004DF58       DecodeSoundexInt
 0001:0004E044       SoundexWord
 0001:0004E104       DecodeSoundexWord
 0001:0004E1F8       SoundexSimilar
 0001:0004E26C       SoundexCompare
 0001:0004E2DC       SoundexProc
 0001:0004E2E8       Finalization
 0001:0004E318       StrUtils
 0001:0004E3CC       VarConvertCreateInto
 0001:0004E3FC       VarConvertCreate
 0001:0004E410       VarConvertCreate
 0001:0004E450       VarConvert
 0001:0004E45C       VarIsConvert
 0001:0004E474       VarAsConvert
 0001:0004E4A8       VarAsConvert
 0001:0004E4E4       TConvertVariantType.BinaryOp
 0001:0004E970       TConvertVariantType.CastTo
 0001:0004EAA4       TConvertVariantType.Clear
 0001:0004EAAC       TConvertVariantType.Compare
 0001:0004EBDC       TConvertVariantType.Copy
 0001:0004EBF0       TConvertVariantType.GetProperty
 0001:0004EDF0       TConvertVariantType.IsClear
 0001:0004EE04       TConvertVariantType.RightPromotion
 0001:0004EE9C       TConvertVariantType.SetProperty
 0001:0004EEE0       TConvertVariantType.UnaryOp
 0001:0004EEF8       Finalization
 0001:0004EF34       VarConv
 0001:0004F1AC       TComplexData.DoAdd
 0001:0004F1CC       TComplexData.Create
 0001:0004F21C       TComplexData.Create
 0001:0004F260       TComplexData.Create
 0001:0004F2AC       TComplexData.DoDivide
 0001:0004F3B4       TComplexData.GetAsString
 0001:0004F440       TComplexData.DoMultiply
 0001:0004F470       TComplexData.DoNegate
 0001:0004F4C0       ParseNumber
 0001:0004F568       ParseWhiteSpace
 0001:0004F618       ParseError
 0001:0004F700       TComplexData.SetAsString
 0001:0004F98C       TComplexData.DoSubtract
 0001:0004F9AC       TComplexData.SetBoth
 0001:0004F9CC       TComplexData.GetAbs
 0001:0004F9E8       TComplexData.GetAbsSqr
 0001:0004FA10       TComplexData.GetAngle
 0001:0004FA3C       TComplexData.DoCos
 0001:0004FAC4       TComplexData.DoSin
 0001:0004FB48       TComplexData.DoTan
 0001:0004FC58       TComplexData.DoConjugate
 0001:0004FC64       TComplexData.DoExp
 0001:0004FCC8       TComplexData.DoInverse
 0001:0004FD68       TComplexData.DoLn
 0001:0004FDC8       TComplexData.DoSqr
 0001:0004FE1C       TComplexData.DoSqrt
 0001:0004FF58       TComplexData.DoTimesNegI
 0001:0004FF70       TComplexData.DoTimesPosI
 0001:0004FF88       TComplexData.IsZero
 0001:0004FFBC       TComplexData.Equal
 0001:00050000       TComplexData.DoPower
 0001:0005007C       TComplexData.GetAsPolar
 0001:000501B4       TComplexData.SetAsPolar
 0001:000501EC       TComplexData.GetRadius
 0001:00050208       TComplexData.GetTheta
 0001:00050224       TComplexData.GetFixedTheta
 0001:00050240       TComplexVariantType.BinaryOp
 0001:00050364       TComplexVariantType.Cast
 0001:00050494       TComplexVariantType.CastTo
 0001:000505C0       TComplexVariantType.Clear
 0001:000505D0       TComplexVariantType.CompareOp
 0001:00050634       TComplexVariantType.Copy
 0001:00050680       TComplexVariantType.GetInstance
 0001:00050684       TComplexVariantType.IsClear
 0001:000506A4       TComplexVariantType.LeftPromotion
 0001:000506E0       TComplexVariantType.RightPromotion
 0001:000506F4       TComplexVariantType.StreamIn
 0001:0005076C       TComplexVariantType.StreamOut
 0001:000507E0       TComplexVariantType.UnaryOp
 0001:00050808       VarComplexCreateInto
 0001:00050824       VarComplexCreate
 0001:00050848       VarComplexCreate
 0001:00050874       VarComplexCreate
 0001:000508A0       VarComplexCreate
 0001:000508C0       VarComplex
 0001:000508CC       VarIsComplex
 0001:000508E4       VarAsComplex
 0001:00050918       VarComplexSimplify
 0001:0005095C       VarComplexAbsSqr
 0001:000509BC       VarComplexAbs
 0001:00050A1C       VarComplexAngle
 0001:00050A7C       VarComplexConjugate
 0001:00050AA0       VarComplexInverse
 0001:00050AC4       VarComplexExp
 0001:00050AE8       VarComplexLn
 0001:00050B0C       VarComplexSqr
 0001:00050B30       VarComplexSqrt
 0001:00050B54       VarComplexTimesPosI
 0001:00050B78       VarComplexTimesNegI
 0001:00050B9C       VarComplexPower
 0001:00050C10       VarComplexCos
 0001:00050C34       VarComplexSin
 0001:00050C58       VarComplexTan
 0001:00050C7C       VarComplexCot
 0001:00050CFC       VarComplexSec
 0001:00050D7C       VarComplexCsc
 0001:00050DFC       VarComplexArcCos
 0001:00050E50       VarComplexArcSin
 0001:00050EC0       VarComplexArcTan
 0001:00050F30       VarComplexArcCot
 0001:00050F94       VarComplexArcSec
 0001:00050FF8       VarComplexArcCsc
 0001:0005105C       VarComplexCosH
 0001:00051114       VarComplexSinH
 0001:000511CC       VarComplexTanH
 0001:00051248       VarComplexCotH
 0001:000512C8       VarComplexSecH
 0001:00051348       VarComplexCscH
 0001:000513C8       VarComplexArcCosH
 0001:0005146C       VarComplexArcSinH
 0001:00051510       VarComplexArcTanH
 0001:000515FC       VarComplexArcCotH
 0001:00051660       VarComplexArcSecH
 0001:000516C4       VarComplexArcCscH
 0001:00051728       VarComplexToPolar
 0001:00051794       VarComplexFromPolar
 0001:000517BC       Finalization
 0001:0005182C       VarCmplx
 0001:0005195C       MaskGetCharType
 0001:00051AB0       MaskGetCurrentDirectives
 0001:00051B2C       MaskIntlLiteralToChar
 0001:00051B4C       MaskDoFormatText
 0001:00051D68       MaskGetMaskSave
 0001:00051DEC       MaskGetMaskBlank
 0001:00051E58       MaskGetFldSeparator
 0001:00051EA4       MaskOffsetToString
 0001:00051F30       MaskOffsetToOffset
 0001:00051F84       MaskOffsetToWideOffset
 0001:00051FF0       OffsetToMaskOffset
 0001:0005204C       IsLiteralChar
 0001:00052074       PadSubField
 0001:0005220C       PadInputLiterals
 0001:000523E4       FormatMaskText
 0001:00052418       Finalization
 0001:00052448       MaskUtils
 0001:00052844       RegisterViewer
 0001:000528DC       GetHelpSystem
 0001:00052940       THelpViewerNode.Create
 0001:000529BC       THelpManager.Create
 0001:00052A30       THelpManager.RegisterViewer
 0001:00052B68       THelpManager.UnloadAllViewers
 0001:00052BB0       THelpManager.DoSoftShutDown
 0001:00052BE0       THelpManager.DoTableOfContents
 0001:00052D80       THelpManager.CallSpecialWinHelp
 0001:00052E88       THelpManager.ShowHelp
 0001:0005309C       THelpManager.ShowContextHelp
 0001:000531B0       THelpManager.ShowTableOfContents
 0001:000531B8       THelpManager.ShowTopicHelp
 0001:000532B4       THelpManager.AssignHelpSelector
 0001:00053318       THelpManager.Hook
 0001:000533D4       THelpManager.GetHandle
 0001:000533D8       THelpManager.GetHelpFile
 0001:000533EC       THelpManager.Release
 0001:0005347C       THelpManager.Destroy
 0001:000534D0       Finalization
 0001:00053510       HelpIntfs
 0001:00053518       FD_SET
 0001:00053528       FD_ZERO
 0001:00053530       accept
 0001:00053538       bind
 0001:00053540       closesocket
 0001:00053548       connect
 0001:00053550       getpeername
 0001:00053558       getsockname
 0001:00053560       getsockopt
 0001:00053568       htons
 0001:00053570       inet_addr
 0001:00053578       inet_ntoa
 0001:00053580       ioctlsocket
 0001:00053588       listen
 0001:00053590       ntohs
 0001:00053598       recv
 0001:000535A0       select
 0001:000535A8       send
 0001:000535B0       setsockopt
 0001:000535B8       socket
 0001:000535C0       gethostbyaddr
 0001:000535C8       gethostbyname
 0001:000535D0       getservbyname
 0001:000535D8       gethostname
 0001:000535E0       WSAAsyncSelect
 0001:000535E8       WSAAsyncGetHostByName
 0001:000535F0       WSAAsyncGetServByName
 0001:000535F8       WSACancelAsyncRequest
 0001:00053600       WSAGetLastError
 0001:00053608       WSAStartup
 0001:00053610       WSACleanup
 0001:00053618       Finalization
 0001:00053648       WinSock
 0001:0005481C       SetErrorProc
 0001:0005483C       CheckSocketResult
 0001:000548F4       Startup
 0001:000549A0       Cleanup
 0001:00054A40       TCustomWinSocket.Create
 0001:00054AB8       TCustomWinSocket.Destroy
 0001:00054B24       TCustomWinSocket.Accept
 0001:00054B28       TCustomWinSocket.AsyncInitSocket
 0001:00054DE0       TCustomWinSocket.Close
 0001:00054DEC       TCustomWinSocket.Connect
 0001:00054DF0       TCustomWinSocket.Lock
 0001:00054DFC       TCustomWinSocket.Unlock
 0001:00054E08       CheckError
 0001:00054EC0       TCustomWinSocket.CMSocketMessage
 0001:00054F4C       TCustomWinSocket.CMDeferFree
 0001:00054F54       TCustomWinSocket.DeferFree
 0001:00054F6C       TCustomWinSocket.DoSetAsyncStyles
 0001:00054FC8       TCustomWinSocket.DoListen
 0001:00055048       TCustomWinSocket.DoOpen
 0001:000550B4       TCustomWinSocket.GetHandle
 0001:000550D0       TCustomWinSocket.GetLocalAddress
 0001:0005515C       TCustomWinSocket.GetLocalHost
 0001:000551E4       TCustomWinSocket.GetLocalPort
 0001:00055270       TCustomWinSocket.GetRemoteHost
 0001:00055324       TCustomWinSocket.GetRemoteAddress
 0001:000553CC       TCustomWinSocket.GetRemotePort
 0001:00055470       TCustomWinSocket.GetRemoteAddr
 0001:000554FC       TCustomWinSocket.LookupName
 0001:00055558       TCustomWinSocket.LookupService
 0001:0005558C       TCustomWinSocket.InitSocket
 0001:00055624       TCustomWinSocket.Listen
 0001:0005572C       TCustomWinSocket.Open
 0001:0005582C       TCustomWinSocket.Disconnect
 0001:00055938       TCustomWinSocket.DefaultHandler
 0001:00055964       TCustomWinSocket.Event
 0001:0005597C       TCustomWinSocket.Error
 0001:000559A0       TCustomWinSocket.SendText
 0001:000559BC       DropStream
 0001:00055A04       TCustomWinSocket.SendStreamPiece
 0001:00055B8C       TCustomWinSocket.SendStream
 0001:00055BA4       TCustomWinSocket.SendStreamThenDrop
 0001:00055BBC       TCustomWinSocket.SendBuf
 0001:00055D00       TCustomWinSocket.SetAsyncStyles
 0001:00055D28       TCustomWinSocket.Read
 0001:00055D44       TCustomWinSocket.ReceiveBuf
 0001:00055EB0       TCustomWinSocket.ReceiveLength
 0001:00055EBC       TCustomWinSocket.ReceiveText
 0001:00055EF8       TCustomWinSocket.WndProc
 0001:00055F4C       TCustomWinSocket.Write
 0001:00055F7C       TCustomWinSocket.CMLookupComplete
 0001:000560D4       TClientWinSocket.Connect
 0001:000560E8       TClientWinSocket.SetClientType
 0001:00056138       TServerClientWinSocket.Create
 0001:000561E4       TServerClientWinSocket.Destroy
 0001:00056218       TServerWinSocket.Create
 0001:0005628C       TServerWinSocket.Destroy
 0001:000562CC       TServerWinSocket.AddClient
 0001:00056334       TServerWinSocket.RemoveClient
 0001:00056388       TServerWinSocket.AddThread
 0001:00056404       TServerWinSocket.RemoveThread
 0001:00056458       TServerWinSocket.ClientEvent
 0001:000564AC       TServerWinSocket.ClientError
 0001:000564C8       TServerWinSocket.GetActiveConnections
 0001:000564D0       TServerWinSocket.GetConnections
 0001:000564E4       TServerWinSocket.GetActiveThreads
 0001:00056564       TServerWinSocket.GetIdleThreads
 0001:000565E4       TServerWinSocket.Accept
 0001:000566E8       TServerWinSocket.Disconnect
 0001:00056800       TServerWinSocket.DoCreateThread
 0001:00056810       TServerWinSocket.Listen
 0001:0005685C       TServerWinSocket.SetServerType
 0001:000568AC       TServerWinSocket.SetThreadCacheSize
 0001:00056948       TServerWinSocket.GetClientSocket
 0001:00056988       TServerWinSocket.ThreadEnd
 0001:000569A8       TServerWinSocket.ThreadStart
 0001:000569C8       TServerWinSocket.GetServerThread
 0001:00056A9C       TServerWinSocket.GetClientThread
 0001:00056B2C       TServerWinSocket.ClientConnect
 0001:00056B4C       TServerWinSocket.ClientDisconnect
 0001:00056B7C       TServerWinSocket.ClientRead
 0001:00056B9C       TServerWinSocket.ClientWrite
 0001:00056BBC       TServerWinSocket.ClientErrorEvent
 0001:00056BE8       TServerAcceptThread.Create
 0001:00056C2C       TServerAcceptThread.Execute
 0001:00056C48       TServerClientThread.Create
 0001:00056CC0       TServerClientThread.Destroy
 0001:00056CF8       TServerClientThread.ReActivate
 0001:00056D34       TServerClientThread.DoHandleException
 0001:00056D80       TServerClientThread.DoRead
 0001:00056D9C       TServerClientThread.DoTerminate
 0001:00056DB8       TServerClientThread.DoWrite
 0001:00056DCC       TServerClientThread.HandleEvent
 0001:00056DDC       TServerClientThread.HandleError
 0001:00056DF0       TServerClientThread.Event
 0001:00056E00       TServerClientThread.Error
 0001:00056E14       TServerClientThread.HandleException
 0001:00056E7C       TServerClientThread.Execute
 0001:00056F24       TServerClientThread.ClientExecute
 0001:00056FCC       TServerClientThread.StartConnect
 0001:00056FF0       TServerClientThread.EndConnect
 0001:00057014       TAbstractSocket.DoEvent
 0001:00057028       TAbstractSocket.DoError
 0001:00057040       TAbstractSocket.SetActive
 0001:00057060       TAbstractSocket.InitSocket
 0001:00057078       TAbstractSocket.Loaded
 0001:00057090       TAbstractSocket.SetAddress
 0001:00057110       TAbstractSocket.SetHost
 0001:00057190       TAbstractSocket.SetPort
 0001:000571BC       TAbstractSocket.SetService
 0001:0005723C       TAbstractSocket.Open
 0001:00057244       TAbstractSocket.Close
 0001:0005724C       TCustomSocket.Event
 0001:0005734C       TCustomSocket.Error
 0001:00057378       TWinSocketStream.Create
 0001:000573F4       TWinSocketStream.Destroy
 0001:00057424       TWinSocketStream.WaitForData
 0001:00057488       TWinSocketStream.Read
 0001:000575EC       TWinSocketStream.Write
 0001:00057744       TWinSocketStream.Seek
 0001:00057748       TClientSocket.Create
 0001:000577A8       TClientSocket.Destroy
 0001:000577D8       TClientSocket.DoActivate
 0001:00057828       TClientSocket.GetClientType
 0001:00057834       TClientSocket.SetClientType
 0001:00057840       TCustomServerSocket.Destroy
 0001:00057870       TCustomServerSocket.DoActivate
 0001:000578B4       TCustomServerSocket.GetServerType
 0001:000578C0       TCustomServerSocket.SetServerType
 0001:000578CC       TCustomServerSocket.GetGetThreadEvent
 0001:000578E0       TCustomServerSocket.SetGetThreadEvent
 0001:000578FC       TCustomServerSocket.GetGetSocketEvent
 0001:00057910       TCustomServerSocket.SetGetSocketEvent
 0001:0005792C       TCustomServerSocket.GetThreadCacheSize
 0001:00057938       TCustomServerSocket.SetThreadCacheSize
 0001:00057944       TCustomServerSocket.GetOnThreadStart
 0001:0005795C       TCustomServerSocket.GetOnThreadEnd
 0001:00057974       TCustomServerSocket.SetOnThreadStart
 0001:00057994       TCustomServerSocket.SetOnThreadEnd
 0001:000579B4       TCustomServerSocket.GetOnClientEvent
 0001:00057A2C       TCustomServerSocket.SetOnClientEvent
 0001:00057AA8       TCustomServerSocket.GetOnClientError
 0001:00057AC0       TCustomServerSocket.SetOnClientError
 0001:00057AE0       TServerSocket.Create
 0001:00057B50       Finalization
 0001:00057B80       ScktComp
 0001:00057B88       Finalization
 0001:00057BB8       AccCtrl
 0001:00057BC0       Finalization
 0001:00057BF0       AclAPI
 0001:00057E54       IsComPlusPlatform
 0001:00057E84       LoadMtsProcs
 0001:00057F3C       GetObjectContext
 0001:00057F7C       SafeRef
 0001:00057FEC       CreateTransactionContext
 0001:00058050       CreateTransactionContextEx
 0001:000580B4       CreateSharedPropertyGroupManager
 0001:00058118       CreateSharedPropertyGroup
 0001:00058194       Finalization
 0001:000581C4       Mtx
 0001:00058E00       Finalization
 0001:00058E30       ComSvcs
 0001:00059A54       CoConnection.Create
 0001:00059AB8       CoConnection.CreateRemote
 0001:00059B38       CoCommand.Create
 0001:00059B9C       CoCommand.CreateRemote
 0001:00059C1C       CoRecordset.Create
 0001:00059C80       CoRecordset.CreateRemote
 0001:00059D00       CoParameter.Create
 0001:00059D64       CoParameter.CreateRemote
 0001:00059DE4       Finalization
 0001:00059E14       ADOInt
 0001:0005A250       TASPObject.GetApplication
 0001:0005A270       TASPObject.GetRequest
 0001:0005A290       TASPObject.GetResponse
 0001:0005A2B0       TASPObject.GetScriptingContext
 0001:0005A2C4       TASPObject.GetServer
 0001:0005A2E4       TASPObject.GetSession
 0001:0005A304       TASPObject.OnEndPage
 0001:0005A340       TASPObject.OnStartPage
 0001:0005A3A4       TASPMTSObject.GetApplication
 0001:0005A488       TASPMTSObject.GetRequest
 0001:0005A564       TASPMTSObject.GetResponse
 0001:0005A644       TASPMTSObject.GetServer
 0001:0005A720       TASPMTSObject.GetSession
 0001:0005A7FC       TASPMTSObject.GetObjectContext
 0001:0005A808       Finalization
 0001:0005A838       AspTlb
 0001:0005A9A4       Finalization
 0001:0005A9D4       COMAdmin
 0001:0005A9DC       Finalization
 0001:0005AA0C       CommCtrl
 0001:0005AA14       Finalization
 0001:0005AA44       ShellAPI
 0001:0005AA4C       Finalization
 0001:0005AA7C       RegStr
 0001:0005AA84       Finalization
 0001:0005AAB4       WinInet
 0001:0005AABC       Finalization
 0001:0005AAEC       UrlMon
 0001:0005AAF4       Finalization
 0001:0005AB24       ShlObj
 0001:0005AB2C       Finalization
 0001:0005AB5C       CommDlg
 0001:0005AB64       Finalization
 0001:0005AB94       Cpl
 0001:0005AB9C       Finalization
 0001:0005ABCC       DDEml
 0001:0005ABD4       Finalization
 0001:0005AC04       Dlgs
 0001:0005AC0C       FlatSB_GetScrollProp
 0001:0005AC3C       FlatSB_SetScrollProp
 0001:0005AC70       InitializeFlatSB
 0001:0005AC98       UninitializeFlatSB
 0001:0005ACB4       InitFlatSB
 0001:0005AF38       Finalization
 0001:0005AF68       FlatSB
 0001:0005B178       Finalization
 0001:0005B1A8       ImageHlp
 0001:0005B1B0       Finalization
 0001:0005B1E0       Imm
 0001:0005B1E8       Finalization
 0001:0005B218       Isapi
 0001:0005B220       Finalization
 0001:0005B250       Isapi2
 0001:0005B258       Finalization
 0001:0005B288       LZExpand
 0001:0005B2A4       InitMapi
 0001:0005B3C0       MapiLogOn
 0001:0005B428       MapiLogOff
 0001:0005B488       MapiSendMail
 0001:0005B4F0       MapiSendDocuments
 0001:0005B55C       MapiFindNext
 0001:0005B5CC       MapiReadMail
 0001:0005B638       MapiSaveMail
 0001:0005B6A4       MapiDeleteMail
 0001:0005B70C       MapiFreeBuffer
 0001:0005B75C       MapiAddress
 0001:0005B7D8       MapiDetails
 0001:0005B83C       MapiResolveName
 0001:0005B8A8       Finalization
 0001:0005B8F8       Mapi
 0001:0005B900       Finalization
 0001:0005B930       MMSystem
 0001:0005C828       CoDOMDocument.Create
 0001:0005C88C       CoDOMDocument.CreateRemote
 0001:0005C90C       CoDOMFreeThreadedDocument.Create
 0001:0005C970       CoDOMFreeThreadedDocument.CreateRemote
 0001:0005C9F0       CoXMLHTTPRequest.Create
 0001:0005CA54       CoXMLHTTPRequest.CreateRemote
 0001:0005CAD4       CoXMLDSOControl.Create
 0001:0005CB38       CoXMLDSOControl.CreateRemote
 0001:0005CBB8       CoXMLDocument.Create
 0001:0005CC1C       CoXMLDocument.CreateRemote
 0001:0005CC9C       Finalization
 0001:0005CCCC       msxml
 0001:0005CCEC       InitAnApi
 0001:0005CDD4       _GetSystemMetrics
 0001:0005CE5C       xMonitorFromRect
 0001:0005CEEC       xMonitorFromWindow
 0001:0005CF84       xMonitorFromPoint
 0001:0005D01C       xGetMonitorInfo
 0001:0005D0F0       xGetMonitorInfoA
 0001:0005D1C4       xGetMonitorInfoW
 0001:0005D298       xEnumDisplayMonitors
 0001:0005D3C8       InitMultiMonStubs
 0001:0005D434       Finalization
 0001:0005D464       MultiMon
 0001:0005D474       Finalization
 0001:0005D4A4       Nb30
 0001:0005D4AC       Finalization
 0001:0005D4DC       Nsapi
 0001:0005D4E4       Finalization
 0001:0005D514       Ns30Fix
 0001:0005D51C       Finalization
 0001:0005D54C       Ns35Fix
 0001:0005D554       Finalization
 0001:0005D584       Ns36Fix
 0001:0005F0B0       Finalization
 0001:0005F0E0       OleDB
 0001:0005F0E8       Finalization
 0001:0005F118       OleDlg
 0001:0005F120       Finalization
 0001:0005F150       OpenGL
 0001:0005F164       Finalization
 0001:0005F194       PenWin
 0001:0005F19C       Finalization
 0001:0005F1CC       PsAPI
 0001:0005F1D4       Finalization
 0001:0005F204       RichEdit
 0001:0005F20C       Finalization
 0001:0005F23C       SHFolder
 0001:0005F244       Finalization
 0001:0005F274       TlHelp32
 0001:0005F27C       Finalization
 0001:0005F2AC       WinSpool
 0001:0005F2B4       Finalization
 0001:0005F2E4       WinSvc
 0001:0005F554       @GetPackageInfoTable
 0001:0005F55C       @PackageLoad
 0001:0005F568       @PackageUnload
 0001:0005F574       rtl
 0002:00000000       ExitCode
 0002:00000004       ErrorAddr
 0002:00000008       RandSeed
 0002:0000000C       FileMode
 0002:00000010       Test8087
 0002:00000014       Default8087CW
 0002:00000018       HeapAllocFlags
 0002:0000001C       DebugHook
 0002:00000020       JITEnable
 0002:00000024       NoErrMsg
 0002:00000028       DefaultTextLineBreakStyle
 0002:0000002C       LibModuleList
 0002:00000030       ModuleUnloadList
 0002:00000034       MemoryManager
 0002:00000040       reMap
 0002:0000005C       two2neg32
 0002:00000064       ShareTab
 0002:00000084       BoolStrs
 0002:00000284       tenE17
 0002:0000028C       tenE18
 0002:00000294       Ten
 0002:0000029C       NanStr
 0002:000002A0       PlusInfStr
 0002:000002A8       MinInfStr
 0002:000002B0       runErrMsg
 0002:000002D0       errCaption
 0002:000002D8       dig
 0002:000002E8       Null
 0002:000002EC       PNull
 0002:000002F0       Module
 0002:00000308       TlsProc
 0002:00000318       EmptyStr
 0002:0000031C       NullStr
 0002:00000320       EmptyWideStr
 0002:00000324       NullWideStr
 0002:00000328       Win32Platform
 0002:0000032C       Win32MajorVersion
 0002:00000330       Win32MinorVersion
 0002:00000334       Win32BuildNumber
 0002:00000338       Win32CSDVersion
 0002:0000033C       TwoDigitYearCenturyWindow
 0002:00000340       MinCurrency
 0002:00000348       MaxCurrency
 0002:00000350       MonthDays
 0002:00000380       MinDateTime
 0002:00000388       MaxDateTime
 0002:00000390       LeadBytes
 0002:000003B0       HexDisplayPrefix
 0002:000003B4       GetDiskFreeSpaceEx
 0002:000003B8       ExitProcList
 0002:000003BC       cSimpleBoolStrs
 0002:000003C4       AccessMode
 0002:000003D0       ShareMode
 0002:000003E4       FormatErrorStrs
 0002:000003EC       FCon1E18
 0002:000003F8       DCon10
 0002:000003FC       CWNear
 0002:00000400       FMSecsPerDay
 0002:00000404       IMSecsPerDay
 0002:00000408       Format
 0002:0000040C       DefShortMonthNames
 0002:0000043C       DefLongMonthNames
 0002:0000046C       DefShortDayNames
 0002:00000488       DefLongDayNames
 0002:000004A4       ErrorMap
 0002:000004DC       ExceptMap
 0002:0000058C       WesternGroups
 0002:00000590       TerminateProcList
 0002:00000594       AL1s
 0002:000005A4       AL2s
 0002:000005B4       CVarTypeToElementInfo
 0002:000006BC       CResult
 0002:000006C4       NullEqualityRule
 0002:000006C8       NullMagnitudeRule
 0002:000006CC       NullStrictConvert
 0002:000006D0       NullAsStringValue
 0002:000006D4       PackVarCreation
 0002:000006D8       BooleanToStringRule
 0002:000006DC       BaseTypeMap
 0002:000006F4       CInvalidCustomVariantType
 0002:000006F8       CRangeToType
 0002:0000070C       OpTypeMap
 0002:00000770       CBooleanToRelationship
 0002:0000077C       CmpTypeMap
 0002:000007E0       CTruth
 0002:000007E4       CText
 0002:00000838       CTruth
 0002:0000083C       LNextVarType
 0002:00000840       CRelationshipToBoolean
 0002:00000854       BooleanIdents
 0002:0000085C       DotSep
 0002:00000860       CATID_Designer
 0002:00000870       CATID_WebDesigntimeControl
 0002:00000880       GUID_NULL
 0002:00000890       GUID_OLE_COLOR
 0002:000008A0       IID_IRpcChannel
 0002:000008B0       IID_IRpcStub
 0002:000008C0       IID_IStubManager
 0002:000008D0       IID_IRpcProxy
 0002:000008E0       IID_IProxyManager
 0002:000008F0       IID_IPSFactory
 0002:00000900       IID_IInternalMoniker
 0002:00000910       CLSID_StdMarshal
 0002:00000920       IID_IEnumGeneric
 0002:00000930       IID_IEnumHolder
 0002:00000940       IID_IEnumCallback
 0002:00000950       IID_IOleManager
 0002:00000960       IID_IOlePresObj
 0002:00000970       IID_IDebug
 0002:00000980       IID_IDebugStream
 0002:00000990       CLSID_CFontPropPage
 0002:000009A0       CLSID_CColorPropPage
 0002:000009B0       CLSID_CPicturePropPage
 0002:000009C0       CLSID_PersistPropset
 0002:000009D0       CLSID_ConvertVBX
 0002:000009E0       CLSID_StdFont
 0002:000009F0       CLSID_StdPicture
 0002:00000A00       CLSID_StdComponentCategoryMgr
 0002:00000A10       AddDataModule
 0002:00000A18       RemoveDataModule
 0002:00000A20       ApplicationHandleException
 0002:00000A28       ApplicationShowException
 0002:00000A30       RegisterComponentsProc
 0002:00000A34       RegisterNoIconProc
 0002:00000A38       CurrentGroup
 0002:00000A3C       RegisterNonActiveXProc
 0002:00000A40       CreateVCLComObjectProc
 0002:00000A44       WakeMainThread
 0002:00000A4C       FilerSignature
 0002:00000A50       NilMethod
 0002:00000A58       Convert
 0002:00000A68       Convert
 0002:00000AD8       Blanks
 0002:00000ADC       SyncList
 0002:00000AE0       Priorities
 0002:00000AFC       BlockCode
 0002:00000B00       UtilWindowClass
 0002:00000B28       CoCreateInstanceEx
 0002:00000B2C       CoInitializeEx
 0002:00000B30       CoAddRefServerProcess
 0002:00000B34       CoReleaseServerProcess
 0002:00000B38       CoResumeClassObjects
 0002:00000B3C       CoSuspendClassObjects
 0002:00000B40       CoInitFlags
 0002:00000B44       RegFlags
 0002:00000B4C       SuspendedFlag
 0002:00000B54       ThreadStrs
 0002:00000B68       DispIDArgs
 0002:00000B6C       C1
 0002:00000B74       C2
 0002:00000B7C       cBucketMasks
 0002:00000B84       CIllegalConvFamily
 0002:00000B88       CIllegalConvType
 0002:00000B8C       GConvUnitToStrFmt
 0002:00000B90       DaysPerYear
 0002:00000B94       ApproxDaysPerMonth
 0002:00000B9C       ApproxDaysPerYear
 0002:00000BA4       CDayMap
 0002:00000BB4       Values
 0002:00000BBC       Values
 0002:00000BC4       LIBID_StdVCL
 0002:00000BD4       IID_IProvider
 0002:00000BE4       IID_IStrings
 0002:00000BF4       IID_IDataBroker
 0002:00000C04       WordDelimiters
 0002:00000C24       AnsiResemblesProc
 0002:00000C28       CSoundexTable
 0002:00000C64       CRelationshipToRelationship
 0002:00000C68       ComplexNumberSymbol
 0002:00000C6C       ComplexNumberSymbolBeforeImaginary
 0002:00000C70       ComplexVariantType
 0002:00000C74       cFormats
 0002:00000C7C       cSign
 0002:00000C84       DefaultBlank
 0002:00000C88       MaskFieldSeparator
 0002:00000C8C       MaskNoSave
 0002:00000C90       CLASS_TransactionContext
 0002:00000CA0       CLASS_TransactionContextEx
 0002:00000CB0       CLASS_SharedPropertyGroupManager
 0002:00000CC0       GetObjectContextProc
 0002:00000CC4       CoGetObjectContextProc
 0002:00000CC8       SafeRefProc
 0002:00000CCC       MtsProcsLoaded
 0002:00000CD0       IID_IObjectContext
 0002:00000CE0       LIBID_COMSVCSLib
 0002:00000CF0       IID_ISecurityCertificateColl
 0002:00000D00       CLASS_SecurityCertificate
 0002:00000D10       IID_ISecurityIdentityColl
 0002:00000D20       CLASS_SecurityIdentity
 0002:00000D30       IID_ISecurityCallersColl
 0002:00000D40       CLASS_SecurityCallers
 0002:00000D50       IID_ISecurityCallContext
 0002:00000D60       CLASS_SecurityCallContext
 0002:00000D70       IID_IGetSecurityCallContext
 0002:00000D80       CLASS_GetSecurityCallContextAppObject
 0002:00000D90       IID_IContextState
 0002:00000DA0       IID_IObjectContextInfo
 0002:00000DB0       IID_IObjectConstruct
 0002:00000DC0       IID_IObjectConstructString
 0002:00000DD0       IID_IObjectContextTip
 0002:00000DE0       IID_IPlaybackControl
 0002:00000DF0       IID_ICrmCompensator
 0002:00000E00       IID_ICrmCompensatorVariants
 0002:00000E10       IID_ICrmLogControl
 0002:00000E20       IID_ICrmFormatLogRecords
 0002:00000E30       CLASS_Dummy30040732
 0002:00000E40       IID_ObjectControl
 0002:00000E50       IID_IMTxAS
 0002:00000E60       CLASS_AppServer
 0002:00000E70       IID_ObjectContext
 0002:00000E80       IID_SecurityProperty
 0002:00000E90       IID_ContextInfo
 0002:00000EA0       IID_ICreateWithTipTransactionEx
 0002:00000EB0       IID_ICreateWithTransactionEx
 0002:00000EC0       CLASS_ByotServerEx
 0002:00000ED0       IID_ITransaction
 0002:00000EE0       IID_IMtsEvents
 0002:00000EF0       IID_IMtsEventInfo
 0002:00000F00       CLASS_COMEvents
 0002:00000F10       IID_IMTSLocator
 0002:00000F20       CLASS_CoMTSLocator
 0002:00000F30       IID_IMtsGrp
 0002:00000F40       CLASS_MtsGrp
 0002:00000F50       IID_IComThreadEvents
 0002:00000F60       IID_IComUserEvent
 0002:00000F70       IID_IComAppEvents
 0002:00000F80       IID_IComInstanceEvents
 0002:00000F90       IID_IComTransactionEvents
 0002:00000FA0       IID_IComMethodEvents
 0002:00000FB0       IID_IComObjectEvents
 0002:00000FC0       IID_IComResourceEvents
 0002:00000FD0       IID_IComSecurityEvents
 0002:00000FE0       IID_IComObjectPoolEvents
 0002:00000FF0       IID_IComObjectPoolEvents2
 0002:00001000       IID_IComObjectConstructionEvents
 0002:00001010       IID_IComActivityEvents
 0002:00001020       IID_IComIdentityEvents
 0002:00001030       IID_IComQCEvents
 0002:00001040       IID_IComExceptionEvents
 0002:00001050       IID_IComCRMEvents
 0002:00001060       CLASS_ComServiceEvents
 0002:00001070       IID_ICrmMonitorLogRecords
 0002:00001080       CLASS_CRMClerk
 0002:00001090       IID_ICrmMonitor
 0002:000010A0       CLASS_CRMRecoveryClerk
 0002:000010B0       IID_ICrmMonitorClerks
 0002:000010C0       IID_ILBEvents
 0002:000010D0       CLASS_LBEvents
 0002:000010E0       IID_IMessageMover
 0002:000010F0       CLASS_MessageMover
 0002:00001100       IID_IDispenserManager
 0002:00001110       IID_IDispenserManagerShutdownGuarantee
 0002:00001120       IID_IDispenserDriver
 0002:00001130       IID_IHolder
 0002:00001140       CLASS_DispenserManager
 0002:00001150       IID_IReceiveAppData
 0002:00001160       IID_IGetAppData
 0002:00001170       CLASS_TrackerServer
 0002:00001180       IID_IEventServer
 0002:00001190       IID_IProcessTerminateNotify
 0002:000011A0       CLASS_EventServer
 0002:000011B0       LIBID_ADODB
 0002:000011C0       CLASS_Connection
 0002:000011D0       CLASS_Command
 0002:000011E0       CLASS_Recordset
 0002:000011F0       CLASS_Parameter
 0002:00001200       CLASS_DataSpace
 0002:00001210       CLASS_DataFactory
 0002:00001220       IID__Collection
 0002:00001230       IID__DynaCollection
 0002:00001240       IID__ADO
 0002:00001250       IID_Properties
 0002:00001260       IID_Property_
 0002:00001270       IID_Error
 0002:00001280       IID_Errors
 0002:00001290       IID_Command15
 0002:000012A0       IID_Connection15
 0002:000012B0       IID__Connection
 0002:000012C0       IID_Recordset15
 0002:000012D0       IID_Recordset20
 0002:000012E0       IID__Recordset
 0002:000012F0       IID_Fields15
 0002:00001300       IID_Fields
 0002:00001310       IID_Field
 0002:00001320       IID__Parameter
 0002:00001330       IID_Parameters
 0002:00001340       IID__Command
 0002:00001350       IID_ConnectionEventsVt
 0002:00001360       DIID_ConnectionEvents
 0002:00001370       IID_RecordsetEventsVt
 0002:00001380       DIID_RecordsetEvents
 0002:00001390       IID_ADOConnectionConstruction15
 0002:000013A0       IID_ADOConnectionConstruction
 0002:000013B0       IID_ADOCommandConstruction
 0002:000013C0       IID_ADORecordsetConstruction
 0002:000013D0       IID_Field15
 0002:000013E0       IID_IDataspace
 0002:000013F0       LIBID_COMAdmin
 0002:00001400       IID_ICOMAdminCatalog
 0002:00001410       CLASS_COMAdminCatalog
 0002:00001420       IID_ICatalogObject
 0002:00001430       CLASS_COMAdminCatalogObject
 0002:00001440       IID_ICatalogCollection
 0002:00001450       CLASS_COMAdminCatalogCollection
 0002:00001460       MAPIDLL
 0002:00001464       MAPIModule
 0002:00001468       LogOn
 0002:0000146C       LogOff
 0002:00001470       SendMail
 0002:00001474       SendDocuments
 0002:00001478       FindNext
 0002:0000147C       ReadMail
 0002:00001480       SaveMail
 0002:00001484       DeleteMail
 0002:00001488       FreeBuffer
 0002:0000148C       Address
 0002:00001490       Details
 0002:00001494       ResolveName
 0002:00001498       MAPIChecked
 0002:0000149C       LIBID_MSXML
 0002:000014AC       IID_IXMLDOMImplementation
 0002:000014BC       IID_IXMLDOMNode
 0002:000014CC       IID_IXMLDOMNodeList
 0002:000014DC       IID_IXMLDOMNamedNodeMap
 0002:000014EC       IID_IXMLDOMDocument
 0002:000014FC       IID_IXMLDOMDocumentType
 0002:0000150C       IID_IXMLDOMElement
 0002:0000151C       IID_IXMLDOMAttribute
 0002:0000152C       IID_IXMLDOMDocumentFragment
 0002:0000153C       IID_IXMLDOMCharacterData
 0002:0000154C       IID_IXMLDOMText
 0002:0000155C       IID_IXMLDOMComment
 0002:0000156C       IID_IXMLDOMCDATASection
 0002:0000157C       IID_IXMLDOMProcessingInstruction
 0002:0000158C       IID_IXMLDOMEntityReference
 0002:0000159C       IID_IXMLDOMParseError
 0002:000015AC       IID_IXMLDOMNotation
 0002:000015BC       IID_IXMLDOMEntity
 0002:000015CC       IID_IXTLRuntime
 0002:000015DC       DIID_XMLDOMDocumentEvents
 0002:000015EC       CLASS_DOMDocument
 0002:000015FC       CLASS_DOMFreeThreadedDocument
 0002:0000160C       IID_IXMLHttpRequest
 0002:0000161C       CLASS_XMLHTTPRequest
 0002:0000162C       IID_IXMLDSOControl
 0002:0000163C       CLASS_XMLDSOControl
 0002:0000164C       IID_IXMLElementCollection
 0002:0000165C       IID_IXMLDocument
 0002:0000166C       IID_IXMLElement
 0002:0000167C       IID_IXMLDocument2
 0002:0000168C       IID_IXMLElement2
 0002:0000169C       IID_IXMLAttribute
 0002:000016AC       IID_IXMLError
 0002:000016BC       CLASS_XMLDocument
 0002:000016CC       CLSID_OLEDB_ENUMERATOR
 0002:000016DC       CLSID_EXTENDEDERRORINFO
 0002:000016EC       CLSID_MSDAVTM
 0002:000016FC       CLSID_OLEDB_CONVERSIONLIBRARY
 0002:0000170C       CLSID_OLEDB_ROWPOSITIONLIBRARY
 0002:0000171C       CLSID_DATALINKS
 0002:0000172C       IID_ITransaction
 0002:0000173C       IID_ITransactionOptions
 0002:0000174C       IID_ITransactionDispenser
 0002:0000175C       IID_ITransactionOutcomeEvents
 0002:0000176C       IID_IAccessor
 0002:0000177C       IID_IRowset
 0002:0000178C       IID_IRowsetInfo
 0002:0000179C       IID_IRowsetLocate
 0002:000017AC       IID_IRowsetResynch
 0002:000017BC       IID_IRowsetScroll
 0002:000017CC       IID_IRowsetChange
 0002:000017DC       IID_IRowsetUpdate
 0002:000017EC       IID_IRowsetIndex
 0002:000017FC       IID_IMultipleResults
 0002:0000180C       IID_IConvertType
 0002:0000181C       IID_ICommandPrepare
 0002:0000182C       IID_ICommandProperties
 0002:0000183C       IID_ICommand
 0002:0000184C       IID_ICommandWithParameters
 0002:0000185C       IID_ICommandText
 0002:0000186C       IID_IColumnsRowset
 0002:0000187C       IID_IColumnsInfo
 0002:0000188C       IID_IDBCreateCommand
 0002:0000189C       IID_IDBCreateSession
 0002:000018AC       IID_ISourcesRowset
 0002:000018BC       IID_IDBProperties
 0002:000018CC       IID_IDBInitialize
 0002:000018DC       IID_IDBInfo
 0002:000018EC       IID_IDBDataSourceAdmin
 0002:000018FC       IID_ISessionProperties
 0002:0000190C       IID_IIndexDefinition
 0002:0000191C       IID_ITableDefinition
 0002:0000192C       IID_IOpenRowset
 0002:0000193C       IID_IErrorLookup
 0002:0000194C       IID_ISQLErrorInfo
 0002:0000195C       IID_IGetDataSource
 0002:0000196C       IID_ITransactionLocal
 0002:0000197C       IID_ITransactionJoin
 0002:0000198C       IID_ITransactionObject
 0002:0000199C       IID_IDBAsynchStatus
 0002:000019AC       IID_IRowsetFind
 0002:000019BC       IID_IRowPosition
 0002:000019CC       IID_IRowPositionChange
 0002:000019DC       IID_IViewRowset
 0002:000019EC       IID_IViewChapter
 0002:000019FC       IID_IViewSort
 0002:00001A0C       IID_IViewFilter
 0002:00001A1C       IID_IRowsetView
 0002:00001A2C       IID_IMDFind
 0002:00001A3C       IID_IMDRangeRowset
 0002:00001A4C       IID_IAlterTable
 0002:00001A5C       IID_IAlterIndex
 0002:00001A6C       IID_ICommandPersist
 0002:00001A7C       IID_IRowsetChapterMember
 0002:00001A8C       IID_IRowsetRefresh
 0002:00001A9C       IID_IParentRowset
 0002:00001AAC       IID_ITrusteeGroupAdmin
 0002:00001ABC       IID_IObjectAccessControl
 0002:00001ACC       IID_ISecurityInfo
 0002:00001ADC       IID_IDBPromptInitialize
 0002:00001AEC       IID_IDataInitialize
 0002:00001AFC       DBSCHEMA_TABLES_INFO
 0002:00001B0C       MDGUID_MDX
 0002:00001B1C       DBGUID_MDX
 0002:00001B2C       MDSCHEMA_CUBES
 0002:00001B3C       MDSCHEMA_DIMENSIONS
 0002:00001B4C       MDSCHEMA_HIERARCHIES
 0002:00001B5C       MDSCHEMA_LEVELS
 0002:00001B6C       MDSCHEMA_MEASURES
 0002:00001B7C       MDSCHEMA_PROPERTIES
 0002:00001B8C       MDSCHEMA_MEMBERS
 0002:00001B9C       DBPROPSET_TRUSTEE
 0002:00001BAC       DBOBJECT_TABLE
 0002:00001BBC       DBOBJECT_COLUMN
 0002:00001BCC       DBOBJECT_DATABASE
 0002:00001BDC       DBOBJECT_PROCEDURE
 0002:00001BEC       DBOBJECT_VIEW
 0002:00001BFC       DBOBJECT_SCHEMA
 0002:00001C0C       DBOBJECT_DOMAIN
 0002:00001C1C       DBOBJECT_COLLATION
 0002:00001C2C       DBOBJECT_TRUSTEE
 0002:00001C3C       DBOBJECT_SCHEMAROWSET
 0002:00001C4C       DBOBJECT_CHARACTERSET
 0002:00001C5C       DBOBJECT_TRANSLATION
 0002:00001C6C       DB_PROPERTY_CHECK_OPTION
 0002:00001C7C       DB_PROPERTY_CONSTRAINT_CHECK_DEFERRED
 0002:00001C8C       DB_PROPERTY_DROP_CASCADE
 0002:00001C9C       DB_PROPERTY_UNIQUE
 0002:00001CAC       DB_PROPERTY_ON_COMMIT_PRESERVE_ROWS
 0002:00001CBC       DB_PROPERTY_PRIMARY
 0002:00001CCC       DB_PROPERTY_CLUSTERED
 0002:00001CDC       DB_PROPERTY_NONCLUSTERED
 0002:00001CEC       DB_PROPERTY_BTREE
 0002:00001CFC       DB_PROPERTY_HASH
 0002:00001D0C       DB_PROPERTY_FILLFACTOR
 0002:00001D1C       DB_PROPERTY_INITIALSIZE
 0002:00001D2C       DB_PROPERTY_DISALLOWNULL
 0002:00001D3C       DB_PROPERTY_IGNORENULL
 0002:00001D4C       DB_PROPERTY_IGNOREANYNULL
 0002:00001D5C       DB_PROPERTY_SORTBOOKMARKS
 0002:00001D6C       DB_PROPERTY_AUTOMATICUPDATE
 0002:00001D7C       DB_PROPERTY_EXPLICITUPDATE
 0002:00001D8C       DBGUID_LIKE_SQL
 0002:00001D9C       DBGUID_LIKE_DOS
 0002:00001DAC       DBGUID_LIKE_OFS
 0002:00001DBC       DBGUID_LIKE_MAPI
 0002:00001DCC       DBSCHEMA_ASSERTIONS
 0002:00001DDC       DBSCHEMA_CATALOGS
 0002:00001DEC       DBSCHEMA_CHARACTER_SETS
 0002:00001DFC       DBSCHEMA_COLLATIONS
 0002:00001E0C       DBSCHEMA_COLUMNS
 0002:00001E1C       DBSCHEMA_CHECK_CONSTRAINTS
 0002:00001E2C       DBSCHEMA_CONSTRAINT_COLUMN_USAGE
 0002:00001E3C       DBSCHEMA_CONSTRAINT_TABLE_USAGE
 0002:00001E4C       DBSCHEMA_KEY_COLUMN_USAGE
 0002:00001E5C       DBSCHEMA_REFERENTIAL_CONSTRAINTS
 0002:00001E6C       DBSCHEMA_TABLE_CONSTRAINTS
 0002:00001E7C       DBSCHEMA_COLUMN_DOMAIN_USAGE
 0002:00001E8C       DBSCHEMA_INDEXES
 0002:00001E9C       DBSCHEMA_COLUMN_PRIVILEGES
 0002:00001EAC       DBSCHEMA_TABLE_PRIVILEGES
 0002:00001EBC       DBSCHEMA_USAGE_PRIVILEGES
 0002:00001ECC       DBSCHEMA_PROCEDURES
 0002:00001EDC       DBSCHEMA_SCHEMATA
 0002:00001EEC       DBSCHEMA_SQL_LANGUAGES
 0002:00001EFC       DBSCHEMA_STATISTICS
 0002:00001F0C       DBSCHEMA_TABLES
 0002:00001F1C       DBSCHEMA_TRANSLATIONS
 0002:00001F2C       DBSCHEMA_PROVIDER_TYPES
 0002:00001F3C       DBSCHEMA_VIEWS
 0002:00001F4C       DBSCHEMA_VIEW_COLUMN_USAGE
 0002:00001F5C       DBSCHEMA_VIEW_TABLE_USAGE
 0002:00001F6C       DBSCHEMA_PROCEDURE_PARAMETERS
 0002:00001F7C       DBSCHEMA_FOREIGN_KEYS
 0002:00001F8C       DBSCHEMA_PRIMARY_KEYS
 0002:00001F9C       DBSCHEMA_PROCEDURE_COLUMNS
 0002:00001FAC       DBCOL_SELFCOLUMNS
 0002:00001FBC       DBCOL_SPECIALCOL
 0002:00001FCC       PSGUID_QUERY
 0002:00001FDC       DBPROPSET_COLUMN
 0002:00001FEC       DBPROPSET_DATASOURCE
 0002:00001FFC       DBPROPSET_DATASOURCEINFO
 0002:0000200C       DBPROPSET_INDEX
 0002:0000201C       DBPROPSET_DBINIT
 0002:0000202C       DBPROPSET_ROWSET
 0002:0000203C       DBPROPSET_SESSION
 0002:0000204C       DBPROPSET_TABLE
 0002:0000205C       DBPROPSET_PROPERTIESINERROR
 0002:0000206C       DBPROPSET_VIEW
 0002:0000207C       DBPROPSET_DATASOURCEALL
 0002:0000208C       DBPROPSET_DATASOURCEINFOALL
 0002:0000209C       DBPROPSET_DBINITALL
 0002:000020AC       DBPROPSET_ROWSETALL
 0002:000020BC       DBPROPSET_SESSIONALL
 0002:000020CC       DBGUID_DEFAULT
 0002:000020DC       DBGUID_SQL
 0002:000020EC       DBCIDGUID
 0002:000020FC       DB_NULLGUID
 0002:0000210C       DB_NULLID
 0002:00002124       DBCOLUMN_IDNAME
 0002:0000213C       DBCOLUMN_NAME
 0002:00002154       DBCOLUMN_NUMBER
 0002:0000216C       DBCOLUMN_TYPE
 0002:00002184       DBCOLUMN_PRECISION
 0002:0000219C       DBCOLUMN_SCALE
 0002:000021B4       DBCOLUMN_FLAGS
 0002:000021CC       DBCOLUMN_BASECOLUMNNAME
 0002:000021E4       DBCOLUMN_BASETABLENAME
 0002:000021FC       DBCOLUMN_COLLATINGSEQUENCE
 0002:00002214       DBCOLUMN_COMPUTEMODE
 0002:0000222C       DBCOLUMN_DEFAULTVALUE
 0002:00002244       DBCOLUMN_DOMAINNAME
 0002:0000225C       DBCOLUMN_HASDEFAULT
 0002:00002274       DBCOLUMN_ISAUTOINCREMENT
 0002:0000228C       DBCOLUMN_ISCASESENSITIVE
 0002:000022A4       DBCOLUMN_ISSEARCHABLE
 0002:000022BC       DBCOLUMN_ISUNIQUE
 0002:000022D4       DBCOLUMN_BASECATALOGNAME
 0002:000022EC       DBCOLUMN_BASESCHEMANAME
 0002:00002304       DBCOLUMN_GUID
 0002:0000231C       DBCOLUMN_PROPID
 0002:00002334       DBCOLUMN_TYPEINFO
 0002:0000234C       DBCOLUMN_DOMAINCATALOG
 0002:00002364       DBCOLUMN_DOMAINSCHEMA
 0002:0000237C       DBCOLUMN_DATETIMEPRECISION
 0002:00002394       DBCOLUMN_NUMERICPRECISIONRADIX
 0002:000023AC       DBCOLUMN_OCTETLENGTH
 0002:000023C4       DBCOLUMN_COLUMNSIZE
 0002:000023DC       DBCOLUMN_CLSID
 0002:000023F4       DBCOLUMN_BASETABLEVERSION
 0002:0000240C       DBCOLUMN_KEYCOLUMN
 0002:00002424       DBCOLUMN_MAYSORT
 0002:00003000       DispCallByIDProc
 0002:00003004       ExceptProc
 0002:00003008       ErrorProc
 0002:0000300C       ExceptClsProc
 0002:00003010       ExceptObjProc
 0002:00003014       RaiseExceptionProc
 0002:00003018       RTLUnwindProc
 0002:0000301C       ExceptionClass
 0002:00003020       SafeCallErrorProc
 0002:00003024       AssertErrorProc
 0002:00003028       ExitProcessProc
 0002:0000302C       AbstractErrorProc
 0002:00003030       HPrevInst
 0002:00003034       MainInstance
 0002:00003038       MainThreadID
 0002:0000303C       IsLibrary
 0002:00003040       CmdShow
 0002:00003044       CmdLine
 0002:00003048       InitProc
 0002:0000304C       ExitProc
 0002:00003050       IsConsole
 0002:00003051       IsMultiThread
 0002:00003052       Test8086
 0002:00003053       TestFDIV
 0002:00003054       Input
 0002:00003220       Output
 0002:000033EC       ErrOutput
 0002:000035B8       envp
 0002:000035BC       AllocMemCount
 0002:000035C0       AllocMemSize
 0002:000035C4       .5
 0002:000035C8       initialized
 0002:000035CC       heapErrorCode
 0002:000035D0       heapLock
 0002:000035E8       blockDescBlockList
 0002:000035EC       blockDescFreeList
 0002:000035F0       spaceRoot
 0002:00003600       decommittedRoot
 0002:00003610       avail
 0002:0000361C       rover
 0002:00003620       remBytes
 0002:00003624       curAlloc
 0002:00003628       smallTab
 0002:0000362C       committedRoot
 0002:0000363C       InitContext
 0002:00003668       VariantManager
 0002:00003714       ModuleIsLib
 0002:00003715       ModuleIsPackage
 0002:00003716       ModuleIsCpp
 0002:00003718       TlsIndex
 0002:00003720       HInstance
 0002:00003724       .1
 0002:00003728       tlsBuffer
 0002:0000372C       .1
 0002:00003730       .3
 0002:00003734       .1
 0002:00003738       CurrencyString
 0002:0000373C       CurrencyFormat
 0002:0000373D       NegCurrFormat
 0002:0000373E       ThousandSeparator
 0002:0000373F       DecimalSeparator
 0002:00003740       CurrencyDecimals
 0002:00003741       DateSeparator
 0002:00003744       ShortDateFormat
 0002:00003748       LongDateFormat
 0002:0000374C       TimeSeparator
 0002:00003750       TimeAMString
 0002:00003754       TimePMString
 0002:00003758       ShortTimeFormat
 0002:0000375C       LongTimeFormat
 0002:00003760       ShortMonthNames
 0002:00003790       LongMonthNames
 0002:000037C0       ShortDayNames
 0002:000037DC       LongDayNames
 0002:000037F8       SysLocale
 0002:00003806       ListSeparator
 0002:00003808       EraNames
 0002:00003824       EraYearOffsets
 0002:00003840       TrueBoolStrs
 0002:00003844       FalseBoolStrs
 0002:00003848       .94
 0002:0000384C       OutOfMemory
 0002:00003850       InvalidPointer
 0002:00003854       Reserved
 0002:00003858       FLanguages
 0002:0000385C       .1
 0002:00003860       TempVariantChangeTypeEx
 0002:00003864       TempVarNeg
 0002:00003868       TempVarNot
 0002:0000386C       TempVarAdd
 0002:00003870       TempVarSub
 0002:00003874       TempVarMul
 0002:00003878       TempVarDiv
 0002:0000387C       TempVarIDiv
 0002:00003880       TempVarMod
 0002:00003884       TempVarAnd
 0002:00003888       TempVarOr
 0002:0000388C       TempVarXor
 0002:00003890       TempVarCmp
 0002:00003894       TempVarI4FromStr
 0002:00003898       TempVarR4FromStr
 0002:0000389C       TempVarR8FromStr
 0002:000038A0       TempVarDateFromStr
 0002:000038A4       TempVarCyFromStr
 0002:000038A8       TempVarBoolFromStr
 0002:000038AC       TempVarBstrFromCy
 0002:000038B0       TempVarBstrFromDate
 0002:000038B4       TempVarBstrFromBool
 0002:000038B8       EmptyParam
 0002:000038C8       VarDispProc
 0002:000038CC       ClearAnyProc
 0002:000038D0       ChangeAnyProc
 0002:000038D4       RefAnyProc
 0002:000038D8       .81
 0002:000038DC       GVariantManager
 0002:00003988       GOldVariantManager
 0002:00003A34       LVarTypes
 0002:00003A38       LVarTypeSync
 0002:00003A3C       .1
 0002:00003A40       .1
 0002:00003A44       .6
 0002:00003A48       .3
 0002:00003A4C       GlobalNameSpace
 0002:00003A50       IsUniqueGlobalComponentNameProc
 0002:00003A54       .35
 0002:00003A58       IntConstList
 0002:00003A5C       RegGroups
 0002:00003A60       FindGlobalComponentProcs
 0002:00003A64       GlobalFixupList
 0002:00003A68       ProcPosted
 0002:00003A6C       ThreadLock
 0002:00003A84       ThreadCount
 0002:00003A88       InstBlockList
 0002:00003A8C       InstFreeList
 0002:00003A90       .6
 0002:00003A94       .1
 0002:00003A98       .41
 0002:00003A9C       OleUninitializing
 0002:00003AA0       ComClassManagerVar
 0002:00003AA4       SaveInitProc
 0002:00003AA8       NeedToUninitialize
 0002:00003AAC       .2
 0002:00003AB0       .2
 0002:00003AB4       .21
 0002:00003AB8       .5
 0002:00003ABC       GConvFamilyList
 0002:00003AC0       GConvTypeList
 0002:00003AC4       GLastConvFamily
 0002:00003AC6       GLastConvType
 0002:00003AC8       GConvFamilySync
 0002:00003ACC       GConvTypeSync
 0002:00003AD0       .1
 0002:00003AD4       .8
 0002:00003AD8       .3
 0002:00003ADC       .5
 0002:00003AE0       cbDistance
 0002:00003AE2       duMicromicrons
 0002:00003AE4       duAngstroms
 0002:00003AE6       duMillimicrons
 0002:00003AE8       duMicrons
 0002:00003AEA       duMillimeters
 0002:00003AEC       duCentimeters
 0002:00003AEE       duDecimeters
 0002:00003AF0       duMeters
 0002:00003AF2       duDecameters
 0002:00003AF4       duHectometers
 0002:00003AF6       duKilometers
 0002:00003AF8       duMegameters
 0002:00003AFA       duGigameters
 0002:00003AFC       duInches
 0002:00003AFE       duFeet
 0002:00003B00       duYards
 0002:00003B02       duMiles
 0002:00003B04       duNauticalMiles
 0002:00003B06       duAstronomicalUnits
 0002:00003B08       duLightYears
 0002:00003B0A       duParsecs
 0002:00003B0C       duCubits
 0002:00003B0E       duFathoms
 0002:00003B10       duFurlongs
 0002:00003B12       duHands
 0002:00003B14       duPaces
 0002:00003B16       duRods
 0002:00003B18       duChains
 0002:00003B1A       duLinks
 0002:00003B1C       duPicas
 0002:00003B1E       duPoints
 0002:00003B20       cbArea
 0002:00003B22       auSquareMillimeters
 0002:00003B24       auSquareCentimeters
 0002:00003B26       auSquareDecimeters
 0002:00003B28       auSquareMeters
 0002:00003B2A       auSquareDecameters
 0002:00003B2C       auSquareHectometers
 0002:00003B2E       auSquareKilometers
 0002:00003B30       auSquareInches
 0002:00003B32       auSquareFeet
 0002:00003B34       auSquareYards
 0002:00003B36       auSquareMiles
 0002:00003B38       auAcres
 0002:00003B3A       auCentares
 0002:00003B3C       auAres
 0002:00003B3E       auHectares
 0002:00003B40       auSquareRods
 0002:00003B42       cbVolume
 0002:00003B44       vuCubicMillimeters
 0002:00003B46       vuCubicCentimeters
 0002:00003B48       vuCubicDecimeters
 0002:00003B4A       vuCubicMeters
 0002:00003B4C       vuCubicDecameters
 0002:00003B4E       vuCubicHectometers
 0002:00003B50       vuCubicKilometers
 0002:00003B52       vuCubicInches
 0002:00003B54       vuCubicFeet
 0002:00003B56       vuCubicYards
 0002:00003B58       vuCubicMiles
 0002:00003B5A       vuMilliLiters
 0002:00003B5C       vuCentiLiters
 0002:00003B5E       vuDeciLiters
 0002:00003B60       vuLiters
 0002:00003B62       vuDecaLiters
 0002:00003B64       vuHectoLiters
 0002:00003B66       vuKiloLiters
 0002:00003B68       vuAcreFeet
 0002:00003B6A       vuAcreInches
 0002:00003B6C       vuCords
 0002:00003B6E       vuCordFeet
 0002:00003B70       vuDecisteres
 0002:00003B72       vuSteres
 0002:00003B74       vuDecasteres
 0002:00003B76       vuFluidGallons
 0002:00003B78       vuFluidQuarts
 0002:00003B7A       vuFluidPints
 0002:00003B7C       vuFluidCups
 0002:00003B7E       vuFluidGills
 0002:00003B80       vuFluidOunces
 0002:00003B82       vuFluidTablespoons
 0002:00003B84       vuFluidTeaspoons
 0002:00003B86       vuDryGallons
 0002:00003B88       vuDryQuarts
 0002:00003B8A       vuDryPints
 0002:00003B8C       vuDryPecks
 0002:00003B8E       vuDryBuckets
 0002:00003B90       vuDryBushels
 0002:00003B92       vuUKGallons
 0002:00003B94       vuUKPottles
 0002:00003B96       vuUKQuarts
 0002:00003B98       vuUKPints
 0002:00003B9A       vuUKGills
 0002:00003B9C       vuUKOunces
 0002:00003B9E       vuUKPecks
 0002:00003BA0       vuUKBuckets
 0002:00003BA2       vuUKBushels
 0002:00003BA4       cbMass
 0002:00003BA6       muNanograms
 0002:00003BA8       muMicrograms
 0002:00003BAA       muMilligrams
 0002:00003BAC       muCentigrams
 0002:00003BAE       muDecigrams
 0002:00003BB0       muGrams
 0002:00003BB2       muDecagrams
 0002:00003BB4       muHectograms
 0002:00003BB6       muKilograms
 0002:00003BB8       muMetricTons
 0002:00003BBA       muDrams
 0002:00003BBC       muGrains
 0002:00003BBE       muLongTons
 0002:00003BC0       muTons
 0002:00003BC2       muOunces
 0002:00003BC4       muPounds
 0002:00003BC6       muStones
 0002:00003BC8       cbTemperature
 0002:00003BCA       tuCelsius
 0002:00003BCC       tuKelvin
 0002:00003BCE       tuFahrenheit
 0002:00003BD0       tuRankine
 0002:00003BD2       tuReaumur
 0002:00003BD4       cbTime
 0002:00003BD6       tuMilliSeconds
 0002:00003BD8       tuSeconds
 0002:00003BDA       tuMinutes
 0002:00003BDC       tuHours
 0002:00003BDE       tuDays
 0002:00003BE0       tuWeeks
 0002:00003BE2       tuFortnights
 0002:00003BE4       tuMonths
 0002:00003BE6       tuYears
 0002:00003BE8       tuDecades
 0002:00003BEA       tuCenturies
 0002:00003BEC       tuMillennia
 0002:00003BEE       tuDateTime
 0002:00003BF0       tuJulianDate
 0002:00003BF2       tuModifiedJulianDate
 0002:00003BF4       .1
 0002:00003BF8       .1
 0002:00003BFC       .1
 0002:00003C00       .1
 0002:00003C04       ConvertVariantType
 0002:00003C08       .1
 0002:00003C0C       .2
 0002:00003C10       .2
 0002:00003C14       HelpManager
 0002:00003C18       .1
 0002:00003C1C       .41
 0002:00003C20       WSAData
 0002:00003DB0       .1
 0002:00003DB4       .1
 0002:00003DB8       .1
 0002:00003DBC       .1
 0002:00003DC0       .5
 0002:00003DC4       .3
 0002:00003DC8       .1
 0002:00003DCC       .1
 0002:00003DD0       .1
 0002:00003DD4       .1
 0002:00003DD8       .1
 0002:00003DDC       .1
 0002:00003DE0       .1
 0002:00003DE4       .1
 0002:00003DE8       .1
 0002:00003DEC       .1
 0002:00003DF0       .1
 0002:00003DF4       FlatSB_EnableScrollBar
 0002:00003DF8       FlatSB_ShowScrollBar
 0002:00003DFC       FlatSB_GetScrollRange
 0002:00003E00       FlatSB_GetScrollInfo
 0002:00003E04       FlatSB_GetScrollPos
 0002:00003E08       FlatSB_SetScrollPos
 0002:00003E0C       FlatSB_SetScrollInfo
 0002:00003E10       FlatSB_SetScrollRange
 0002:00003E14       .1
 0002:00003E18       _FlatSB_GetScrollProp
 0002:00003E1C       _FlatSB_SetScrollProp
 0002:00003E20       _InitializeFlatSB
 0002:00003E24       _UninitializeFlatSB
 0002:00003E28       .1
 0002:00003E2C       .1
 0002:00003E30       .1
 0002:00003E34       .1
 0002:00003E38       .1
 0002:00003E3C       .1
 0002:00003E40       .7
 0002:00003E44       .6
 0002:00003E48       GetSystemMetrics
 0002:00003E4C       MonitorFromWindow
 0002:00003E50       MonitorFromRect
 0002:00003E54       MonitorFromPoint
 0002:00003E58       GetMonitorInfo
 0002:00003E5C       GetMonitorInfoA
 0002:00003E60       GetMonitorInfoW
 0002:00003E64       EnumDisplayMonitors
 0002:00003E68       .1
 0002:00003E6C       User32Dll
 0002:00003E70       InitApis
 0002:00003E78       MMAvailable
 0002:00003E7C       .1
 0002:00003E80       .1
 0002:00003E84       .1
 0002:00003E88       .1
 0002:00003E8C       .1
 0002:00003E90       .1
 0002:00003E94       .1
 0002:00003E98       .1
 0002:00003E9C       .1
 0002:00003EA0       .1
 0002:00003EA4       .1
 0002:00003EA8       .1
 0002:00003EAC       .1
 0002:00003EB0       .3
 0002:00003EB4       .1


Bound resource files

rtl.res
c:\TEMP\dtfBC68.tmp


Program entry point at 0001:0005F574
